(dp1
S'1'
ccopy_reg
_reconstructor
p2
(cvectorLibrary
modelComponent
p3
c__builtin__
object
p4
NtRp5
(dp6
S'maxx'
p7
F35
sS'maxy'
p8
F394.09447999999998
sS'drawableObjectList'
p9
(lp10
g2
(cvectorLibrary
drawableVec2dLineSegment
p11
g4
NtRp12
(dp13
S'centre'
p14
NsS'baseCollisionArcList'
p15
(lp16
sS'ignoreColourRequests'
p17
I00
sS'p1p2'
p18
g2
(cpygameVec2d
Vec2d
p19
g4
NtRp20
(lp21
F10
aF-10
absS'lineColour'
p22
(I255
I255
I255
tp23
sS'miny'
p24
F314.09447999999998
sg8
F324.09447999999998
sS'baseLSList'
p25
(lp26
sS'p2'
p27
g2
(g19
g4
NtRp28
(lp29
F25
aF314.09447999999998
absS'minx'
p30
F15
sg7
F25
sS'p1'
p31
g2
(g19
g4
NtRp32
(lp33
F15
aF324.09447999999998
absS'baseArcList'
p34
(lp35
sS'defaultWidth'
p36
I1
sS'length'
p37
F14.142135623730951
sS'points'
p38
(lp39
sS'longestRayLength'
p40
F324.44141530709419
sS'baseCollisionLSList'
p41
(lp42
g2
(cvectorLibrary
vec2dLineSegment
p43
g4
NtRp44
(dp45
g27
g2
(g19
g4
NtRp46
(lp47
F25
aF314.09447999999998
absg31
g2
(g19
g4
NtRp48
(lp49
F15
aF324.09447999999998
absg14
Nsg34
(lp50
sg15
g50
sg18
g2
(g19
g4
NtRp51
(lp52
F10
aF-10
absg37
F14.142135623730951
sg38
(lp53
sg25
(lp54
sg41
g54
sbasbag2
(g11
g4
NtRp55
(dp56
g14
Nsg15
(lp57
sg17
I00
sg18
g2
(g19
g4
NtRp58
(lp59
F0
aF80
absg22
g23
sg24
F314.09447999999998
sg8
F394.09447999999998
sg25
(lp60
sg27
g2
(g19
g4
NtRp61
(lp62
F25
aF394.09447999999998
absg30
F25
sg7
F25
sg31
g2
(g19
g4
NtRp63
(lp64
F25
aF314.09447999999998
absg34
(lp65
sg36
I1
sg37
F80
sg38
(lp66
sg40
F394.88664090656499
sg41
(lp67
g2
(g43
g4
NtRp68
(dp69
g27
g2
(g19
g4
NtRp70
(lp71
F25
aF394.09447999999998
absg31
g2
(g19
g4
NtRp72
(lp73
F25
aF314.09447999999998
absg14
Nsg34
(lp74
sg15
g74
sg18
g2
(g19
g4
NtRp75
(lp76
F0
aF80
absg37
F80
sg38
(lp77
sg25
(lp78
sg41
g78
sbasbag2
(g11
g4
NtRp79
(dp80
g14
Nsg15
(lp81
sg17
I00
sg18
g2
(g19
g4
NtRp82
(lp83
F20
aF0
absg22
g23
sg24
F394.09447999999998
sg8
F394.09447999999998
sg25
(lp84
sg27
g2
(g19
g4
NtRp85
(lp86
F35
aF394.09447999999998
absg30
F15
sg7
F35
sg31
g2
(g19
g4
NtRp87
(lp88
F15
aF394.09447999999998
absg34
(lp89
sg36
I1
sg37
F20
sg38
(lp90
sg40
F395.64562321156848
sg41
(lp91
g2
(g43
g4
NtRp92
(dp93
g27
g2
(g19
g4
NtRp94
(lp95
F35
aF394.09447999999998
absg31
g2
(g19
g4
NtRp96
(lp97
F15
aF394.09447999999998
absg14
Nsg34
(lp98
sg15
g98
sg18
g2
(g19
g4
NtRp99
(lp100
F20
aF0
absg37
F20
sg38
(lp101
sg25
(lp102
sg41
g102
sbasbasg30
F15
sg24
F314.09447999999998
sS'trigger'
p103
S'always'
p104
sS'collideable'
p105
I01
sbsS'0'
g2
(g3
g4
NtRp106
(dp107
g7
F950
sg8
F394.09447999999998
sg9
(lp108
g2
(g11
g4
NtRp109
(dp110
g14
Nsg15
(lp111
sg17
I00
sg18
g2
(g19
g4
NtRp112
(lp113
F-5
aF5
absg22
g23
sg24
F314.09447999999998
sg8
F319.09447999999998
sg25
(lp114
sg27
g2
(g19
g4
NtRp115
(lp116
F900
aF319.09447999999998
absg30
F900
sg7
F905
sg31
g2
(g19
g4
NtRp117
(lp118
F905
aF314.09447999999998
absg34
(lp119
sg36
I1
sg37
F7.0710678118654755
sg38
(lp120
sg40
F957.95633635697106
sg41
(lp121
g2
(g43
g4
NtRp122
(dp123
g27
g2
(g19
g4
NtRp124
(lp125
F900
aF319.09447999999998
absg31
g2
(g19
g4
NtRp126
(lp127
F905
aF314.09447999999998
absg14
Nsg34
(lp128
sg15
g128
sg18
g2
(g19
g4
NtRp129
(lp130
F-5
aF5
absg37
F7.0710678118654755
sg38
(lp131
sg25
(lp132
sg41
g132
sbasbag2
(g11
g4
NtRp133
(dp134
g14
Nsg15
(lp135
sg17
I00
sg18
g2
(g19
g4
NtRp136
(lp137
F0
aF70
absg22
g23
sg24
F319.09447999999998
sg8
F389.09447999999998
sg25
(lp138
sg27
g2
(g19
g4
NtRp139
(lp140
F900
aF389.09447999999998
absg30
F900
sg7
F900
sg31
g2
(g19
g4
NtRp141
(lp142
F900
aF319.09447999999998
absg34
(lp143
sg36
I1
sg37
F70
sg38
(lp144
sg40
F980.50727399977529
sg41
(lp145
g2
(g43
g4
NtRp146
(dp147
g27
g2
(g19
g4
NtRp148
(lp149
F900
aF389.09447999999998
absg31
g2
(g19
g4
NtRp150
(lp151
F900
aF319.09447999999998
absg14
Nsg34
(lp152
sg15
g152
sg18
g2
(g19
g4
NtRp153
(lp154
F0
aF70
absg37
F70
sg38
(lp155
sg25
(lp156
sg41
g156
sbasbag2
(g11
g4
NtRp157
(dp158
g14
Nsg15
(lp159
sg17
I00
sg18
g2
(g19
g4
NtRp160
(lp161
F5
aF5
absg22
g23
sg24
F389.09447999999998
sg8
F394.09447999999998
sg25
(lp162
sg27
g2
(g19
g4
NtRp163
(lp164
F905
aF394.09447999999998
absg30
F900
sg7
F905
sg31
g2
(g19
g4
NtRp165
(lp166
F900
aF389.09447999999998
absg34
(lp167
sg36
I1
sg37
F7.0710678118654755
sg38
(lp168
sg40
F987.08432221693727
sg41
(lp169
g2
(g43
g4
NtRp170
(dp171
g27
g2
(g19
g4
NtRp172
(lp173
F905
aF394.09447999999998
absg31
g2
(g19
g4
NtRp174
(lp175
F900
aF389.09447999999998
absg14
Nsg34
(lp176
sg15
g176
sg18
g2
(g19
g4
NtRp177
(lp178
F5
aF5
absg37
F7.0710678118654755
sg38
(lp179
sg25
(lp180
sg41
g180
sbasbag2
(g11
g4
NtRp181
(dp182
g14
Nsg15
(lp183
sg17
I00
sg18
g2
(g19
g4
NtRp184
(lp185
F40
aF0
absg22
g23
sg24
F394.09447999999998
sg8
F394.09447999999998
sg25
(lp186
sg27
g2
(g19
g4
NtRp187
(lp188
F945
aF394.09447999999998
absg30
F905
sg7
F945
sg31
g2
(g19
g4
NtRp189
(lp190
F905
aF394.09447999999998
absg34
(lp191
sg36
I1
sg37
F40
sg38
(lp192
sg40
F1023.8825416845774
sg41
(lp193
g2
(g43
g4
NtRp194
(dp195
g27
g2
(g19
g4
NtRp196
(lp197
F945
aF394.09447999999998
absg31
g2
(g19
g4
NtRp198
(lp199
F905
aF394.09447999999998
absg14
Nsg34
(lp200
sg15
g200
sg18
g2
(g19
g4
NtRp201
(lp202
F40
aF0
absg37
F40
sg38
(lp203
sg25
(lp204
sg41
g204
sbasbag2
(g11
g4
NtRp205
(dp206
g14
Nsg15
(lp207
sg17
I00
sg18
g2
(g19
g4
NtRp208
(lp209
F5
aF-5
absg22
g23
sg24
F389.09447999999998
sg8
F394.09447999999998
sg25
(lp210
sg27
g2
(g19
g4
NtRp211
(lp212
F950
aF389.09447999999998
absg30
F945
sg7
F950
sg31
g2
(g19
g4
NtRp213
(lp214
F945
aF394.09447999999998
absg34
(lp215
sg36
I1
sg37
F7.0710678118654755
sg38
(lp216
sg40
F1026.5936461747999
sg41
(lp217
g2
(g43
g4
NtRp218
(dp219
g27
g2
(g19
g4
NtRp220
(lp221
F950
aF389.09447999999998
absg31
g2
(g19
g4
NtRp222
(lp223
F945
aF394.09447999999998
absg14
Nsg34
(lp224
sg15
g224
sg18
g2
(g19
g4
NtRp225
(lp226
F5
aF-5
absg37
F7.0710678118654755
sg38
(lp227
sg25
(lp228
sg41
g228
sbasbag2
(g11
g4
NtRp229
(dp230
g14
Nsg15
(lp231
sg17
I00
sg18
g2
(g19
g4
NtRp232
(lp233
F0
aF-70
absg22
g23
sg24
F319.09447999999998
sg8
F389.09447999999998
sg25
(lp234
sg27
g2
(g19
g4
NtRp235
(lp236
F950
aF319.09447999999998
absg30
F950
sg7
F950
sg31
g2
(g19
g4
NtRp237
(lp238
F950
aF389.09447999999998
absg34
(lp239
sg36
I1
sg37
F70
sg38
(lp240
sg40
F1026.5936461747999
sg41
(lp241
g2
(g43
g4
NtRp242
(dp243
g27
g2
(g19
g4
NtRp244
(lp245
F950
aF319.09447999999998
absg31
g2
(g19
g4
NtRp246
(lp247
F950
aF389.09447999999998
absg14
Nsg34
(lp248
sg15
g248
sg18
g2
(g19
g4
NtRp249
(lp250
F0
aF-70
absg37
F70
sg38
(lp251
sg25
(lp252
sg41
g252
sbasbag2
(g11
g4
NtRp253
(dp254
g14
Nsg15
(lp255
sg17
I00
sg18
g2
(g19
g4
NtRp256
(lp257
F-5
aF-5
absg22
g23
sg24
F314.09447999999998
sg8
F319.09447999999998
sg25
(lp258
sg27
g2
(g19
g4
NtRp259
(lp260
F945
aF314.09447999999998
absg30
F945
sg7
F950
sg31
g2
(g19
g4
NtRp261
(lp262
F950
aF319.09447999999998
absg34
(lp263
sg36
I1
sg37
F7.0710678118654755
sg38
(lp264
sg40
F1002.1583144226616
sg41
(lp265
g2
(g43
g4
NtRp266
(dp267
g27
g2
(g19
g4
NtRp268
(lp269
F945
aF314.09447999999998
absg31
g2
(g19
g4
NtRp270
(lp271
F950
aF319.09447999999998
absg14
Nsg34
(lp272
sg15
g272
sg18
g2
(g19
g4
NtRp273
(lp274
F-5
aF-5
absg37
F7.0710678118654755
sg38
(lp275
sg25
(lp276
sg41
g276
sbasbag2
(g11
g4
NtRp277
(dp278
g14
Nsg15
(lp279
sg17
I00
sg18
g2
(g19
g4
NtRp280
(lp281
F-40
aF0
absg22
g23
sg24
F314.09447999999998
sg8
F314.09447999999998
sg25
(lp282
sg27
g2
(g19
g4
NtRp283
(lp284
F905
aF314.09447999999998
absg30
F905
sg7
F945
sg31
g2
(g19
g4
NtRp285
(lp286
F945
aF314.09447999999998
absg34
(lp287
sg36
I1
sg37
F40
sg38
(lp288
sg40
F995.83148291589498
sg41
(lp289
g2
(g43
g4
NtRp290
(dp291
g27
g2
(g19
g4
NtRp292
(lp293
F905
aF314.09447999999998
absg31
g2
(g19
g4
NtRp294
(lp295
F945
aF314.09447999999998
absg14
Nsg34
(lp296
sg15
g296
sg18
g2
(g19
g4
NtRp297
(lp298
F-40
aF0
absg37
F40
sg38
(lp299
sg25
(lp300
sg41
g300
sbasbag2
(g11
g4
NtRp301
(dp302
g14
Nsg15
(lp303
sg17
I00
sg18
g2
(g19
g4
NtRp304
(lp305
F50
aF-80
absg22
g23
sg24
F314.09447999999998
sg8
F394.09447999999998
sg25
(lp306
sg27
g2
(g19
g4
NtRp307
(lp308
F950
aF314.09447999999998
absg30
F900
sg7
F950
sg31
g2
(g19
g4
NtRp309
(lp310
F900
aF394.09447999999998
absg34
(lp311
sg36
I1
sg37
F94.339811320566042
sg38
(lp312
sg40
F1000.5775044275532
sg41
(lp313
g2
(g43
g4
NtRp314
(dp315
g27
g2
(g19
g4
NtRp316
(lp317
F950
aF314.09447999999998
absg31
g2
(g19
g4
NtRp318
(lp319
F900
aF394.09447999999998
absg14
Nsg34
(lp320
sg15
g320
sg18
g2
(g19
g4
NtRp321
(lp322
F50
aF-80
absg37
F94.339811320566042
sg38
(lp323
sg25
(lp324
sg41
g324
sbasbag2
(g11
g4
NtRp325
(dp326
g14
Nsg15
(lp327
sg17
I00
sg18
g2
(g19
g4
NtRp328
(lp329
F0
aF0
absg22
g23
sg24
F314.09447999999998
sg8
F314.09447999999998
sg25
(lp330
sg27
g2
(g19
g4
NtRp331
(lp332
F950
aF314.09447999999998
absg30
F950
sg7
F950
sg31
g2
(g19
g4
NtRp333
(lp334
F950
aF314.09447999999998
absg34
(lp335
sg36
I1
sg37
F0
sg38
(lp336
sg40
F1000.5775044275532
sg41
(lp337
g2
(g43
g4
NtRp338
(dp339
g27
g2
(g19
g4
NtRp340
(lp341
F950
aF314.09447999999998
absg31
g2
(g19
g4
NtRp342
(lp343
F950
aF314.09447999999998
absg14
Nsg34
(lp344
sg15
g344
sg18
g2
(g19
g4
NtRp345
(lp346
F0
aF0
absg37
F0
sg38
(lp347
sg25
(lp348
sg41
g348
sbasbag2
(g11
g4
NtRp349
(dp350
g14
Nsg15
(lp351
sg17
I00
sg18
g2
(g19
g4
NtRp352
(lp353
F0
aF0
absg22
g23
sg24
F314.09447999999998
sg8
F314.09447999999998
sg25
(lp354
sg27
g2
(g19
g4
NtRp355
(lp356
F950
aF314.09447999999998
absg30
F950
sg7
F950
sg31
g2
(g19
g4
NtRp357
(lp358
F950
aF314.09447999999998
absg34
(lp359
sg36
I1
sg37
F0
sg38
(lp360
sg40
F1000.5775044275532
sg41
(lp361
g2
(g43
g4
NtRp362
(dp363
g27
g2
(g19
g4
NtRp364
(lp365
F950
aF314.09447999999998
absg31
g2
(g19
g4
NtRp366
(lp367
F950
aF314.09447999999998
absg14
Nsg34
(lp368
sg15
g368
sg18
g2
(g19
g4
NtRp369
(lp370
F0
aF0
absg37
F0
sg38
(lp371
sg25
(lp372
sg41
g372
sbasbasg30
F900
sg24
F314.09447999999998
sg103
g104
sg105
I01
sbsS'3'
g2
(g3
g4
NtRp373
(dp374
g7
F250
sg8
F394.09447999999998
sg9
(lp375
g2
(g11
g4
NtRp376
(dp377
g14
Nsg15
(lp378
sg17
I00
sg18
g2
(g19
g4
NtRp379
(lp380
F10
aF-10
absg22
g23
sg24
F314.09447999999998
sg8
F324.09447999999998
sg25
(lp381
sg27
g2
(g19
g4
NtRp382
(lp383
F210
aF314.09447999999998
absg30
F200
sg7
F210
sg31
g2
(g19
g4
NtRp384
(lp385
F200
aF324.09447999999998
absg34
(lp386
sg36
I1
sg37
F14.142135623730951
sg38
(lp387
sg40
F380.83754012238654
sg41
(lp388
g2
(g43
g4
NtRp389
(dp390
g27
g2
(g19
g4
NtRp391
(lp392
F210
aF314.09447999999998
absg31
g2
(g19
g4
NtRp393
(lp394
F200
aF324.09447999999998
absg14
Nsg34
(lp395
sg15
g395
sg18
g2
(g19
g4
NtRp396
(lp397
F10
aF-10
absg37
F14.142135623730951
sg38
(lp398
sg25
(lp399
sg41
g399
sbasbag2
(g11
g4
NtRp400
(dp401
g14
Nsg15
(lp402
sg17
I00
sg18
g2
(g19
g4
NtRp403
(lp404
F30
aF0
absg22
g23
sg24
F314.09447999999998
sg8
F314.09447999999998
sg25
(lp405
sg27
g2
(g19
g4
NtRp406
(lp407
F240
aF314.09447999999998
absg30
F210
sg7
F240
sg31
g2
(g19
g4
NtRp408
(lp409
F210
aF314.09447999999998
absg34
(lp410
sg36
I1
sg37
F30
sg38
(lp411
sg40
F395.29146508174239
sg41
(lp412
g2
(g43
g4
NtRp413
(dp414
g27
g2
(g19
g4
NtRp415
(lp416
F240
aF314.09447999999998
absg31
g2
(g19
g4
NtRp417
(lp418
F210
aF314.09447999999998
absg14
Nsg34
(lp419
sg15
g419
sg18
g2
(g19
g4
NtRp420
(lp421
F30
aF0
absg37
F30
sg38
(lp422
sg25
(lp423
sg41
g423
sbasbag2
(g11
g4
NtRp424
(dp425
g14
Nsg15
(lp426
sg17
I00
sg18
g2
(g19
g4
NtRp427
(lp428
F10
aF10
absg22
g23
sg24
F314.09447999999998
sg8
F324.09447999999998
sg25
(lp429
sg27
g2
(g19
g4
NtRp430
(lp431
F250
aF324.09447999999998
absg30
F240
sg7
F250
sg31
g2
(g19
g4
NtRp432
(lp433
F240
aF314.09447999999998
absg34
(lp434
sg36
I1
sg37
F14.142135623730951
sg38
(lp435
sg40
F409.31312215279684
sg41
(lp436
g2
(g43
g4
NtRp437
(dp438
g27
g2
(g19
g4
NtRp439
(lp440
F250
aF324.09447999999998
absg31
g2
(g19
g4
NtRp441
(lp442
F240
aF314.09447999999998
absg14
Nsg34
(lp443
sg15
g443
sg18
g2
(g19
g4
NtRp444
(lp445
F10
aF10
absg37
F14.142135623730951
sg38
(lp446
sg25
(lp447
sg41
g447
sbasbag2
(g11
g4
NtRp448
(dp449
g14
Nsg15
(lp450
sg17
I00
sg18
g2
(g19
g4
NtRp451
(lp452
F0
aF25
absg22
g23
sg24
F324.09447999999998
sg8
F349.09447999999998
sg25
(lp453
sg27
g2
(g19
g4
NtRp454
(lp455
F250
aF349.09447999999998
absg30
F250
sg7
F250
sg31
g2
(g19
g4
NtRp456
(lp457
F250
aF324.09447999999998
absg34
(lp458
sg36
I1
sg37
F25
sg38
(lp459
sg40
F429.37973399599377
sg41
(lp460
g2
(g43
g4
NtRp461
(dp462
g27
g2
(g19
g4
NtRp463
(lp464
F250
aF349.09447999999998
absg31
g2
(g19
g4
NtRp465
(lp466
F250
aF324.09447999999998
absg14
Nsg34
(lp467
sg15
g467
sg18
g2
(g19
g4
NtRp468
(lp469
F0
aF25
absg37
F25
sg38
(lp470
sg25
(lp471
sg41
g471
sbasbag2
(g11
g4
NtRp472
(dp473
g14
Nsg15
(lp474
sg17
I00
sg18
g2
(g19
g4
NtRp475
(lp476
F-5
aF5
absg22
g23
sg24
F349.09447999999998
sg8
F354.09447999999998
sg25
(lp477
sg27
g2
(g19
g4
NtRp478
(lp479
F245
aF354.09447999999998
absg30
F245
sg7
F250
sg31
g2
(g19
g4
NtRp480
(lp481
F250
aF349.09447999999998
absg34
(lp482
sg36
I1
sg37
F7.0710678118654755
sg38
(lp483
sg40
F430.59017727587604
sg41
(lp484
g2
(g43
g4
NtRp485
(dp486
g27
g2
(g19
g4
NtRp487
(lp488
F245
aF354.09447999999998
absg31
g2
(g19
g4
NtRp489
(lp490
F250
aF349.09447999999998
absg14
Nsg34
(lp491
sg15
g491
sg18
g2
(g19
g4
NtRp492
(lp493
F-5
aF5
absg37
F7.0710678118654755
sg38
(lp494
sg25
(lp495
sg41
g495
sbasbag2
(g11
g4
NtRp496
(dp497
g14
Nsg15
(lp498
sg17
I00
sg18
g2
(g19
g4
NtRp499
(lp500
F5
aF5
absg22
g23
sg24
F354.09447999999998
sg8
F359.09447999999998
sg25
(lp501
sg27
g2
(g19
g4
NtRp502
(lp503
F250
aF359.09447999999998
absg30
F245
sg7
F250
sg31
g2
(g19
g4
NtRp504
(lp505
F245
aF354.09447999999998
absg34
(lp506
sg36
I1
sg37
F7.0710678118654755
sg38
(lp507
sg40
F437.54867793934699
sg41
(lp508
g2
(g43
g4
NtRp509
(dp510
g27
g2
(g19
g4
NtRp511
(lp512
F250
aF359.09447999999998
absg31
g2
(g19
g4
NtRp513
(lp514
F245
aF354.09447999999998
absg14
Nsg34
(lp515
sg15
g515
sg18
g2
(g19
g4
NtRp516
(lp517
F5
aF5
absg37
F7.0710678118654755
sg38
(lp518
sg25
(lp519
sg41
g519
sbasbag2
(g11
g4
NtRp520
(dp521
g14
Nsg15
(lp522
sg17
I00
sg18
g2
(g19
g4
NtRp523
(lp524
F0
aF25
absg22
g23
sg24
F359.09447999999998
sg8
F384.09447999999998
sg25
(lp525
sg27
g2
(g19
g4
NtRp526
(lp527
F250
aF384.09447999999998
absg30
F250
sg7
F250
sg31
g2
(g19
g4
NtRp528
(lp529
F250
aF359.09447999999998
absg34
(lp530
sg36
I1
sg37
F25
sg38
(lp531
sg40
F458.28874038805532
sg41
(lp532
g2
(g43
g4
NtRp533
(dp534
g27
g2
(g19
g4
NtRp535
(lp536
F250
aF384.09447999999998
absg31
g2
(g19
g4
NtRp537
(lp538
F250
aF359.09447999999998
absg14
Nsg34
(lp539
sg15
g539
sg18
g2
(g19
g4
NtRp540
(lp541
F0
aF25
absg37
F25
sg38
(lp542
sg25
(lp543
sg41
g543
sbasbag2
(g11
g4
NtRp544
(dp545
g14
Nsg15
(lp546
sg17
I00
sg18
g2
(g19
g4
NtRp547
(lp548
F-5
aF10
absg22
g23
sg24
F384.09447999999998
sg8
F394.09447999999998
sg25
(lp549
sg27
g2
(g19
g4
NtRp550
(lp551
F245
aF394.09447999999998
absg30
F245
sg7
F250
sg31
g2
(g19
g4
NtRp552
(lp553
F250
aF384.09447999999998
absg34
(lp554
sg36
I1
sg37
F11.180339887498949
sg38
(lp555
sg40
F464.04251870542032
sg41
(lp556
g2
(g43
g4
NtRp557
(dp558
g27
g2
(g19
g4
NtRp559
(lp560
F245
aF394.09447999999998
absg31
g2
(g19
g4
NtRp561
(lp562
F250
aF384.09447999999998
absg14
Nsg34
(lp563
sg15
g563
sg18
g2
(g19
g4
NtRp564
(lp565
F-5
aF10
absg37
F11.180339887498949
sg38
(lp566
sg25
(lp567
sg41
g567
sbasbag2
(g11
g4
NtRp568
(dp569
g14
Nsg15
(lp570
sg17
I00
sg18
g2
(g19
g4
NtRp571
(lp572
F-35
aF0
absg22
g23
sg24
F394.09447999999998
sg8
F394.09447999999998
sg25
(lp573
sg27
g2
(g19
g4
NtRp574
(lp575
F210
aF394.09447999999998
absg30
F210
sg7
F245
sg31
g2
(g19
g4
NtRp576
(lp577
F245
aF394.09447999999998
absg34
(lp578
sg36
I1
sg37
F35
sg38
(lp579
sg40
F464.04251870542032
sg41
(lp580
g2
(g43
g4
NtRp581
(dp582
g27
g2
(g19
g4
NtRp583
(lp584
F210
aF394.09447999999998
absg31
g2
(g19
g4
NtRp585
(lp586
F245
aF394.09447999999998
absg14
Nsg34
(lp587
sg15
g587
sg18
g2
(g19
g4
NtRp588
(lp589
F-35
aF0
absg37
F35
sg38
(lp590
sg25
(lp591
sg41
g591
sbasbag2
(g11
g4
NtRp592
(dp593
g14
Nsg15
(lp594
sg17
I00
sg18
g2
(g19
g4
NtRp595
(lp596
F-10
aF-10
absg22
g23
sg24
F384.09447999999998
sg8
F394.09447999999998
sg25
(lp597
sg27
g2
(g19
g4
NtRp598
(lp599
F200
aF384.09447999999998
absg30
F200
sg7
F210
sg31
g2
(g19
g4
NtRp600
(lp601
F210
aF394.09447999999998
absg34
(lp602
sg36
I1
sg37
F14.142135623730951
sg38
(lp603
sg40
F446.55398236548109
sg41
(lp604
g2
(g43
g4
NtRp605
(dp606
g27
g2
(g19
g4
NtRp607
(lp608
F200
aF384.09447999999998
absg31
g2
(g19
g4
NtRp609
(lp610
F210
aF394.09447999999998
absg14
Nsg34
(lp611
sg15
g611
sg18
g2
(g19
g4
NtRp612
(lp613
F-10
aF-10
absg37
F14.142135623730951
sg38
(lp614
sg25
(lp615
sg41
g615
sbasbag2
(g11
g4
NtRp616
(dp617
g14
Nsg15
(lp618
sg17
I00
sg18
g2
(g19
g4
NtRp619
(lp620
F0
aF0
absg22
g23
sg24
F384.09447999999998
sg8
F384.09447999999998
sg25
(lp621
sg27
g2
(g19
g4
NtRp622
(lp623
F200
aF384.09447999999998
absg30
F200
sg7
F200
sg31
g2
(g19
g4
NtRp624
(lp625
F200
aF384.09447999999998
absg34
(lp626
sg36
I1
sg37
F0
sg38
(lp627
sg40
F433.04568992944655
sg41
(lp628
g2
(g43
g4
NtRp629
(dp630
g27
g2
(g19
g4
NtRp631
(lp632
F200
aF384.09447999999998
absg31
g2
(g19
g4
NtRp633
(lp634
F200
aF384.09447999999998
absg14
Nsg34
(lp635
sg15
g635
sg18
g2
(g19
g4
NtRp636
(lp637
F0
aF0
absg37
F0
sg38
(lp638
sg25
(lp639
sg41
g639
sbasbag2
(g11
g4
NtRp640
(dp641
g14
Nsg15
(lp642
sg17
I00
sg18
g2
(g19
g4
NtRp643
(lp644
F30
aF0
absg22
g23
sg24
F354.09447999999998
sg8
F354.09447999999998
sg25
(lp645
sg27
g2
(g19
g4
NtRp646
(lp647
F245
aF354.09447999999998
absg30
F215
sg7
F245
sg31
g2
(g19
g4
NtRp648
(lp649
F215
aF354.09447999999998
absg34
(lp650
sg36
I1
sg37
F30
sg38
(lp651
sg40
F430.59017727587604
sg41
(lp652
g2
(g43
g4
NtRp653
(dp654
g27
g2
(g19
g4
NtRp655
(lp656
F245
aF354.09447999999998
absg31
g2
(g19
g4
NtRp657
(lp658
F215
aF354.09447999999998
absg14
Nsg34
(lp659
sg15
g659
sg18
g2
(g19
g4
NtRp660
(lp661
F30
aF0
absg37
F30
sg38
(lp662
sg25
(lp663
sg41
g663
sbasbasg30
F200
sg24
F314.09447999999998
sg103
g104
sg105
I01
sbsS'2'
g2
(g3
g4
NtRp664
(dp665
g7
F150
sg8
F394.09447999999998
sg9
(lp666
g2
(g11
g4
NtRp667
(dp668
g14
Nsg15
(lp669
sg17
I00
sg18
g2
(g19
g4
NtRp670
(lp671
F10
aF-10
absg22
g23
sg24
F314.09447999999998
sg8
F324.09447999999998
sg25
(lp672
sg27
g2
(g19
g4
NtRp673
(lp674
F110
aF314.09447999999998
absg30
F100
sg7
F110
sg31
g2
(g19
g4
NtRp675
(lp676
F100
aF324.09447999999998
absg34
(lp677
sg36
I1
sg37
F14.142135623730951
sg38
(lp678
sg40
F339.17139025346813
sg41
(lp679
g2
(g43
g4
NtRp680
(dp681
g27
g2
(g19
g4
NtRp682
(lp683
F110
aF314.09447999999998
absg31
g2
(g19
g4
NtRp684
(lp685
F100
aF324.09447999999998
absg14
Nsg34
(lp686
sg15
g686
sg18
g2
(g19
g4
NtRp687
(lp688
F10
aF-10
absg37
F14.142135623730951
sg38
(lp689
sg25
(lp690
sg41
g690
sbasbag2
(g11
g4
NtRp691
(dp692
g14
Nsg15
(lp693
sg17
I00
sg18
g2
(g19
g4
NtRp694
(lp695
F30
aF0
absg22
g23
sg24
F314.09447999999998
sg8
F314.09447999999998
sg25
(lp696
sg27
g2
(g19
g4
NtRp697
(lp698
F140
aF314.09447999999998
absg30
F110
sg7
F140
sg31
g2
(g19
g4
NtRp699
(lp700
F110
aF314.09447999999998
absg34
(lp701
sg36
I1
sg37
F30
sg38
(lp702
sg40
F343.8827450839463
sg41
(lp703
g2
(g43
g4
NtRp704
(dp705
g27
g2
(g19
g4
NtRp706
(lp707
F140
aF314.09447999999998
absg31
g2
(g19
g4
NtRp708
(lp709
F110
aF314.09447999999998
absg14
Nsg34
(lp710
sg15
g710
sg18
g2
(g19
g4
NtRp711
(lp712
F30
aF0
absg37
F30
sg38
(lp713
sg25
(lp714
sg41
g714
sbasbag2
(g11
g4
NtRp715
(dp716
g14
Nsg15
(lp717
sg17
I00
sg18
g2
(g19
g4
NtRp718
(lp719
F10
aF10
absg22
g23
sg24
F314.09447999999998
sg8
F324.09447999999998
sg25
(lp720
sg27
g2
(g19
g4
NtRp721
(lp722
F150
aF324.09447999999998
absg30
F140
sg7
F150
sg31
g2
(g19
g4
NtRp723
(lp724
F140
aF314.09447999999998
absg34
(lp725
sg36
I1
sg37
F14.142135623730951
sg38
(lp726
sg40
F357.12355280276654
sg41
(lp727
g2
(g43
g4
NtRp728
(dp729
g27
g2
(g19
g4
NtRp730
(lp731
F150
aF324.09447999999998
absg31
g2
(g19
g4
NtRp732
(lp733
F140
aF314.09447999999998
absg14
Nsg34
(lp734
sg15
g734
sg18
g2
(g19
g4
NtRp735
(lp736
F10
aF10
absg37
F14.142135623730951
sg38
(lp737
sg25
(lp738
sg41
g738
sbasbag2
(g11
g4
NtRp739
(dp740
g14
Nsg15
(lp741
sg17
I00
sg18
g2
(g19
g4
NtRp742
(lp743
F0
aF30
absg22
g23
sg24
F324.09447999999998
sg8
F354.09447999999998
sg25
(lp744
sg27
g2
(g19
g4
NtRp745
(lp746
F150
aF354.09447999999998
absg30
F150
sg7
F150
sg31
g2
(g19
g4
NtRp747
(lp748
F150
aF324.09447999999998
absg34
(lp749
sg36
I1
sg37
F30
sg38
(lp750
sg40
F384.55545863564384
sg41
(lp751
g2
(g43
g4
NtRp752
(dp753
g27
g2
(g19
g4
NtRp754
(lp755
F150
aF354.09447999999998
absg31
g2
(g19
g4
NtRp756
(lp757
F150
aF324.09447999999998
absg14
Nsg34
(lp758
sg15
g758
sg18
g2
(g19
g4
NtRp759
(lp760
F0
aF30
absg37
F30
sg38
(lp761
sg25
(lp762
sg41
g762
sbasbag2
(g11
g4
NtRp763
(dp764
g14
Nsg15
(lp765
sg17
I00
sg18
g2
(g19
g4
NtRp766
(lp767
F-40
aF0
absg22
g23
sg24
F354.09447999999998
sg8
F354.09447999999998
sg25
(lp768
sg27
g2
(g19
g4
NtRp769
(lp770
F110
aF354.09447999999998
absg30
F110
sg7
F150
sg31
g2
(g19
g4
NtRp771
(lp772
F150
aF354.09447999999998
absg34
(lp773
sg36
I1
sg37
F40
sg38
(lp774
sg40
F384.55545863564384
sg41
(lp775
g2
(g43
g4
NtRp776
(dp777
g27
g2
(g19
g4
NtRp778
(lp779
F110
aF354.09447999999998
absg31
g2
(g19
g4
NtRp780
(lp781
F150
aF354.09447999999998
absg14
Nsg34
(lp782
sg15
g782
sg18
g2
(g19
g4
NtRp783
(lp784
F-40
aF0
absg37
F40
sg38
(lp785
sg25
(lp786
sg41
g786
sbasbag2
(g11
g4
NtRp787
(dp788
g14
Nsg15
(lp789
sg17
I00
sg18
g2
(g19
g4
NtRp790
(lp791
F-10
aF10
absg22
g23
sg24
F354.09447999999998
sg8
F364.09447999999998
sg25
(lp792
sg27
g2
(g19
g4
NtRp793
(lp794
F100
aF364.09447999999998
absg30
F100
sg7
F110
sg31
g2
(g19
g4
NtRp795
(lp796
F110
aF354.09447999999998
absg34
(lp797
sg36
I1
sg37
F14.142135623730951
sg38
(lp798
sg40
F377.57752894799017
sg41
(lp799
g2
(g43
g4
NtRp800
(dp801
g27
g2
(g19
g4
NtRp802
(lp803
F100
aF364.09447999999998
absg31
g2
(g19
g4
NtRp804
(lp805
F110
aF354.09447999999998
absg14
Nsg34
(lp806
sg15
g806
sg18
g2
(g19
g4
NtRp807
(lp808
F-10
aF10
absg37
F14.142135623730951
sg38
(lp809
sg25
(lp810
sg41
g810
sbasbag2
(g11
g4
NtRp811
(dp812
g14
Nsg15
(lp813
sg17
I00
sg18
g2
(g19
g4
NtRp814
(lp815
F0
aF30
absg22
g23
sg24
F364.09447999999998
sg8
F394.09447999999998
sg25
(lp816
sg27
g2
(g19
g4
NtRp817
(lp818
F100
aF394.09447999999998
absg30
F100
sg7
F100
sg31
g2
(g19
g4
NtRp819
(lp820
F100
aF364.09447999999998
absg34
(lp821
sg36
I1
sg37
F30
sg38
(lp822
sg40
F406.58388945760061
sg41
(lp823
g2
(g43
g4
NtRp824
(dp825
g27
g2
(g19
g4
NtRp826
(lp827
F100
aF394.09447999999998
absg31
g2
(g19
g4
NtRp828
(lp829
F100
aF364.09447999999998
absg14
Nsg34
(lp830
sg15
g830
sg18
g2
(g19
g4
NtRp831
(lp832
F0
aF30
absg37
F30
sg38
(lp833
sg25
(lp834
sg41
g834
sbasbag2
(g11
g4
NtRp835
(dp836
g14
Nsg15
(lp837
sg17
I00
sg18
g2
(g19
g4
NtRp838
(lp839
F50
aF0
absg22
g23
sg24
F394.09447999999998
sg8
F394.09447999999998
sg25
(lp840
sg27
g2
(g19
g4
NtRp841
(lp842
F150
aF394.09447999999998
absg30
F100
sg7
F150
sg31
g2
(g19
g4
NtRp843
(lp844
F100
aF394.09447999999998
absg34
(lp845
sg36
I1
sg37
F50
sg38
(lp846
sg40
F421.67577493433316
sg41
(lp847
g2
(g43
g4
NtRp848
(dp849
g27
g2
(g19
g4
NtRp850
(lp851
F150
aF394.09447999999998
absg31
g2
(g19
g4
NtRp852
(lp853
F100
aF394.09447999999998
absg14
Nsg34
(lp854
sg15
g854
sg18
g2
(g19
g4
NtRp855
(lp856
F50
aF0
absg37
F50
sg38
(lp857
sg25
(lp858
sg41
g858
sbasbasg30
F100
sg24
F314.09447999999998
sg103
g104
sg105
I01
sbsS'5'
g2
(g3
g4
NtRp859
(dp860
g7
F450
sg8
F394.09447999999998
sg9
(lp861
g2
(g11
g4
NtRp862
(dp863
g14
Nsg15
(lp864
sg17
I00
sg18
g2
(g19
g4
NtRp865
(lp866
F-40
aF0
absg22
g23
sg24
F314.09447999999998
sg8
F314.09447999999998
sg25
(lp867
sg27
g2
(g19
g4
NtRp868
(lp869
F405
aF314.09447999999998
absg30
F405
sg7
F445
sg31
g2
(g19
g4
NtRp870
(lp871
F445
aF314.09447999999998
absg34
(lp872
sg36
I1
sg37
F40
sg38
(lp873
sg40
F544.68370855614023
sg41
(lp874
g2
(g43
g4
NtRp875
(dp876
g27
g2
(g19
g4
NtRp877
(lp878
F405
aF314.09447999999998
absg31
g2
(g19
g4
NtRp879
(lp880
F445
aF314.09447999999998
absg14
Nsg34
(lp881
sg15
g881
sg18
g2
(g19
g4
NtRp882
(lp883
F-40
aF0
absg37
F40
sg38
(lp884
sg25
(lp885
sg41
g885
sbasbag2
(g11
g4
NtRp886
(dp887
g14
Nsg15
(lp888
sg17
I00
sg18
g2
(g19
g4
NtRp889
(lp890
F-5
aF5
absg22
g23
sg24
F314.09447999999998
sg8
F319.09447999999998
sg25
(lp891
sg27
g2
(g19
g4
NtRp892
(lp893
F400
aF319.09447999999998
absg30
F400
sg7
F405
sg31
g2
(g19
g4
NtRp894
(lp895
F405
aF314.09447999999998
absg34
(lp896
sg36
I1
sg37
F7.0710678118654755
sg38
(lp897
sg40
F512.52350420880248
sg41
(lp898
g2
(g43
g4
NtRp899
(dp900
g27
g2
(g19
g4
NtRp901
(lp902
F400
aF319.09447999999998
absg31
g2
(g19
g4
NtRp903
(lp904
F405
aF314.09447999999998
absg14
Nsg34
(lp905
sg15
g905
sg18
g2
(g19
g4
NtRp906
(lp907
F-5
aF5
absg37
F7.0710678118654755
sg38
(lp908
sg25
(lp909
sg41
g909
sbasbag2
(g11
g4
NtRp910
(dp911
g14
Nsg15
(lp912
sg17
I00
sg18
g2
(g19
g4
NtRp913
(lp914
F0
aF35
absg22
g23
sg24
F319.09447999999998
sg8
F354.09447999999998
sg25
(lp915
sg27
g2
(g19
g4
NtRp916
(lp917
F400
aF354.09447999999998
absg30
F400
sg7
F400
sg31
g2
(g19
g4
NtRp918
(lp919
F400
aF319.09447999999998
absg34
(lp920
sg36
I1
sg37
F35
sg38
(lp921
sg40
F534.21241165520519
sg41
(lp922
g2
(g43
g4
NtRp923
(dp924
g27
g2
(g19
g4
NtRp925
(lp926
F400
aF354.09447999999998
absg31
g2
(g19
g4
NtRp927
(lp928
F400
aF319.09447999999998
absg14
Nsg34
(lp929
sg15
g929
sg18
g2
(g19
g4
NtRp930
(lp931
F0
aF35
absg37
F35
sg38
(lp932
sg25
(lp933
sg41
g933
sbasbag2
(g11
g4
NtRp934
(dp935
g14
Nsg15
(lp936
sg17
I00
sg18
g2
(g19
g4
NtRp937
(lp938
F45
aF0
absg22
g23
sg24
F354.09447999999998
sg8
F354.09447999999998
sg25
(lp939
sg27
g2
(g19
g4
NtRp940
(lp941
F445
aF354.09447999999998
absg30
F400
sg7
F445
sg31
g2
(g19
g4
NtRp942
(lp943
F400
aF354.09447999999998
absg34
(lp944
sg36
I1
sg37
F45
sg38
(lp945
sg40
F568.68963483298194
sg41
(lp946
g2
(g43
g4
NtRp947
(dp948
g27
g2
(g19
g4
NtRp949
(lp950
F445
aF354.09447999999998
absg31
g2
(g19
g4
NtRp951
(lp952
F400
aF354.09447999999998
absg14
Nsg34
(lp953
sg15
g953
sg18
g2
(g19
g4
NtRp954
(lp955
F45
aF0
absg37
F45
sg38
(lp956
sg25
(lp957
sg41
g957
sbasbag2
(g11
g4
NtRp958
(dp959
g14
Nsg15
(lp960
sg17
I00
sg18
g2
(g19
g4
NtRp961
(lp962
F5
aF5
absg22
g23
sg24
F354.09447999999998
sg8
F359.09447999999998
sg25
(lp963
sg27
g2
(g19
g4
NtRp964
(lp965
F450
aF359.09447999999998
absg30
F445
sg7
F450
sg31
g2
(g19
g4
NtRp966
(lp967
F445
aF354.09447999999998
absg34
(lp968
sg36
I1
sg37
F7.0710678118654755
sg38
(lp969
sg40
F575.71594173382971
sg41
(lp970
g2
(g43
g4
NtRp971
(dp972
g27
g2
(g19
g4
NtRp973
(lp974
F450
aF359.09447999999998
absg31
g2
(g19
g4
NtRp975
(lp976
F445
aF354.09447999999998
absg14
Nsg34
(lp977
sg15
g977
sg18
g2
(g19
g4
NtRp978
(lp979
F5
aF5
absg37
F7.0710678118654755
sg38
(lp980
sg25
(lp981
sg41
g981
sbasbag2
(g11
g4
NtRp982
(dp983
g14
Nsg15
(lp984
sg17
I00
sg18
g2
(g19
g4
NtRp985
(lp986
F0
aF30
absg22
g23
sg24
F359.09447999999998
sg8
F389.09447999999998
sg25
(lp987
sg27
g2
(g19
g4
NtRp988
(lp989
F450
aF389.09447999999998
absg30
F450
sg7
F450
sg31
g2
(g19
g4
NtRp990
(lp991
F450
aF359.09447999999998
absg34
(lp992
sg36
I1
sg37
F30
sg38
(lp993
sg40
F594.89033810146088
sg41
(lp994
g2
(g43
g4
NtRp995
(dp996
g27
g2
(g19
g4
NtRp997
(lp998
F450
aF389.09447999999998
absg31
g2
(g19
g4
NtRp999
(lp1000
F450
aF359.09447999999998
absg14
Nsg34
(lp1001
sg15
g1001
sg18
g2
(g19
g4
NtRp1002
(lp1003
F0
aF30
absg37
F30
sg38
(lp1004
sg25
(lp1005
sg41
g1005
sbasbag2
(g11
g4
NtRp1006
(dp1007
g14
Nsg15
(lp1008
sg17
I00
sg18
g2
(g19
g4
NtRp1009
(lp1010
F-5
aF5
absg22
g23
sg24
F389.09447999999998
sg8
F394.09447999999998
sg25
(lp1011
sg27
g2
(g19
g4
NtRp1012
(lp1013
F445
aF394.09447999999998
absg30
F445
sg7
F450
sg31
g2
(g19
g4
NtRp1014
(lp1015
F450
aF389.09447999999998
absg34
(lp1016
sg36
I1
sg37
F7.0710678118654755
sg38
(lp1017
sg40
F594.89033810146088
sg41
(lp1018
g2
(g43
g4
NtRp1019
(dp1020
g27
g2
(g19
g4
NtRp1021
(lp1022
F445
aF394.09447999999998
absg31
g2
(g19
g4
NtRp1023
(lp1024
F450
aF389.09447999999998
absg14
Nsg34
(lp1025
sg15
g1025
sg18
g2
(g19
g4
NtRp1026
(lp1027
F-5
aF5
absg37
F7.0710678118654755
sg38
(lp1028
sg25
(lp1029
sg41
g1029
sbasbag2
(g11
g4
NtRp1030
(dp1031
g14
Nsg15
(lp1032
sg17
I00
sg18
g2
(g19
g4
NtRp1033
(lp1034
F-45
aF0
absg22
g23
sg24
F394.09447999999998
sg8
F394.09447999999998
sg25
(lp1035
sg27
g2
(g19
g4
NtRp1036
(lp1037
F400
aF394.09447999999998
absg30
F400
sg7
F445
sg31
g2
(g19
g4
NtRp1038
(lp1039
F445
aF394.09447999999998
absg34
(lp1040
sg36
I1
sg37
F45
sg38
(lp1041
sg40
F594.42027149691853
sg41
(lp1042
g2
(g43
g4
NtRp1043
(dp1044
g27
g2
(g19
g4
NtRp1045
(lp1046
F400
aF394.09447999999998
absg31
g2
(g19
g4
NtRp1047
(lp1048
F445
aF394.09447999999998
absg14
Nsg34
(lp1049
sg15
g1049
sg18
g2
(g19
g4
NtRp1050
(lp1051
F-45
aF0
absg37
F45
sg38
(lp1052
sg25
(lp1053
sg41
g1053
sbasbag2
(g11
g4
NtRp1054
(dp1055
g14
Nsg15
(lp1056
sg17
I00
sg18
g2
(g19
g4
NtRp1057
(lp1058
F0
aF0
absg22
g23
sg24
F394.09447999999998
sg8
F394.09447999999998
sg25
(lp1059
sg27
g2
(g19
g4
NtRp1060
(lp1061
F400
aF394.09447999999998
absg30
F400
sg7
F400
sg31
g2
(g19
g4
NtRp1062
(lp1063
F400
aF394.09447999999998
absg34
(lp1064
sg36
I1
sg37
F0
sg38
(lp1065
sg40
F561.52511890962671
sg41
(lp1066
g2
(g43
g4
NtRp1067
(dp1068
g27
g2
(g19
g4
NtRp1069
(lp1070
F400
aF394.09447999999998
absg31
g2
(g19
g4
NtRp1071
(lp1072
F400
aF394.09447999999998
absg14
Nsg34
(lp1073
sg15
g1073
sg18
g2
(g19
g4
NtRp1074
(lp1075
F0
aF0
absg37
F0
sg38
(lp1076
sg25
(lp1077
sg41
g1077
sbasbasg30
F400
sg24
F314.09447999999998
sg103
g104
sg105
I01
sbsS'4'
g2
(g3
g4
NtRp1078
(dp1079
g7
F350
sg8
F394.09447999999998
sg9
(lp1080
g2
(g11
g4
NtRp1081
(dp1082
g14
Nsg15
(lp1083
sg17
I00
sg18
g2
(g19
g4
NtRp1084
(lp1085
F0
aF-80
absg22
g23
sg24
F314.09447999999998
sg8
F394.09447999999998
sg25
(lp1086
sg27
g2
(g19
g4
NtRp1087
(lp1088
F335
aF314.09447999999998
absg30
F335
sg7
F335
sg31
g2
(g19
g4
NtRp1089
(lp1090
F335
aF394.09447999999998
absg34
(lp1091
sg36
I1
sg37
F80
sg38
(lp1092
sg40
F517.23830017359546
sg41
(lp1093
g2
(g43
g4
NtRp1094
(dp1095
g27
g2
(g19
g4
NtRp1096
(lp1097
F335
aF314.09447999999998
absg31
g2
(g19
g4
NtRp1098
(lp1099
F335
aF394.09447999999998
absg14
Nsg34
(lp1100
sg15
g1100
sg18
g2
(g19
g4
NtRp1101
(lp1102
F0
aF-80
absg37
F80
sg38
(lp1103
sg25
(lp1104
sg41
g1104
sbasbag2
(g11
g4
NtRp1105
(dp1106
g14
Nsg15
(lp1107
sg17
I00
sg18
g2
(g19
g4
NtRp1108
(lp1109
F-35
aF50
absg22
g23
sg24
F314.09447999999998
sg8
F364.09447999999998
sg25
(lp1110
sg27
g2
(g19
g4
NtRp1111
(lp1112
F300
aF364.09447999999998
absg30
F300
sg7
F335
sg31
g2
(g19
g4
NtRp1113
(lp1114
F335
aF314.09447999999998
absg34
(lp1115
sg36
I1
sg37
F61.032778078668514
sg38
(lp1116
sg40
F471.76772925505446
sg41
(lp1117
g2
(g43
g4
NtRp1118
(dp1119
g27
g2
(g19
g4
NtRp1120
(lp1121
F300
aF364.09447999999998
absg31
g2
(g19
g4
NtRp1122
(lp1123
F335
aF314.09447999999998
absg14
Nsg34
(lp1124
sg15
g1124
sg18
g2
(g19
g4
NtRp1125
(lp1126
F-35
aF50
absg37
F61.032778078668514
sg38
(lp1127
sg25
(lp1128
sg41
g1128
sbasbag2
(g11
g4
NtRp1129
(dp1130
g14
Nsg15
(lp1131
sg17
I00
sg18
g2
(g19
g4
NtRp1132
(lp1133
F50
aF0
absg22
g23
sg24
F364.09447999999998
sg8
F364.09447999999998
sg25
(lp1134
sg27
g2
(g19
g4
NtRp1135
(lp1136
F350
aF364.09447999999998
absg30
F300
sg7
F350
sg31
g2
(g19
g4
NtRp1137
(lp1138
F300
aF364.09447999999998
absg34
(lp1139
sg36
I1
sg37
F50
sg38
(lp1140
sg40
F505.03939486585637
sg41
(lp1141
g2
(g43
g4
NtRp1142
(dp1143
g27
g2
(g19
g4
NtRp1144
(lp1145
F350
aF364.09447999999998
absg31
g2
(g19
g4
NtRp1146
(lp1147
F300
aF364.09447999999998
absg14
Nsg34
(lp1148
sg15
g1148
sg18
g2
(g19
g4
NtRp1149
(lp1150
F50
aF0
absg37
F50
sg38
(lp1151
sg25
(lp1152
sg41
g1152
sbasbasg30
F300
sg24
F314.09447999999998
sg103
g104
sg105
I01
sbsS'7'
g2
(g3
g4
NtRp1153
(dp1154
g7
F650
sg8
F394.09447999999998
sg9
(lp1155
g2
(g11
g4
NtRp1156
(dp1157
g14
Nsg15
(lp1158
sg17
I00
sg18
g2
(g19
g4
NtRp1159
(lp1160
F50
aF0
absg22
g23
sg24
F314.09447999999998
sg8
F314.09447999999998
sg25
(lp1161
sg27
g2
(g19
g4
NtRp1162
(lp1163
F650
aF314.09447999999998
absg30
F600
sg7
F650
sg31
g2
(g19
g4
NtRp1164
(lp1165
F600
aF314.09447999999998
absg34
(lp1166
sg36
I1
sg37
F50
sg38
(lp1167
sg40
F721.91089641760527
sg41
(lp1168
g2
(g43
g4
NtRp1169
(dp1170
g27
g2
(g19
g4
NtRp1171
(lp1172
F650
aF314.09447999999998
absg31
g2
(g19
g4
NtRp1173
(lp1174
F600
aF314.09447999999998
absg14
Nsg34
(lp1175
sg15
g1175
sg18
g2
(g19
g4
NtRp1176
(lp1177
F50
aF0
absg37
F50
sg38
(lp1178
sg25
(lp1179
sg41
g1179
sbasbag2
(g11
g4
NtRp1180
(dp1181
g14
Nsg15
(lp1182
sg17
I00
sg18
g2
(g19
g4
NtRp1183
(lp1184
F-35
aF80
absg22
g23
sg24
F314.09447999999998
sg8
F394.09447999999998
sg25
(lp1185
sg27
g2
(g19
g4
NtRp1186
(lp1187
F615
aF394.09447999999998
absg30
F615
sg7
F650
sg31
g2
(g19
g4
NtRp1188
(lp1189
F650
aF314.09447999999998
absg34
(lp1190
sg36
I1
sg37
F87.321245982864909
sg38
(lp1191
sg40
F730.43511632893888
sg41
(lp1192
g2
(g43
g4
NtRp1193
(dp1194
g27
g2
(g19
g4
NtRp1195
(lp1196
F615
aF394.09447999999998
absg31
g2
(g19
g4
NtRp1197
(lp1198
F650
aF314.09447999999998
absg14
Nsg34
(lp1199
sg15
g1199
sg18
g2
(g19
g4
NtRp1200
(lp1201
F-35
aF80
absg37
F87.321245982864909
sg38
(lp1202
sg25
(lp1203
sg41
g1203
sbasbag2
(g11
g4
NtRp1204
(dp1205
g14
Nsg15
(lp1206
sg17
I00
sg18
g2
(g19
g4
NtRp1207
(lp1208
F0
aF0
absg22
g23
sg24
F394.09447999999998
sg8
F394.09447999999998
sg25
(lp1209
sg27
g2
(g19
g4
NtRp1210
(lp1211
F615
aF394.09447999999998
absg30
F615
sg7
F615
sg31
g2
(g19
g4
NtRp1212
(lp1213
F615
aF394.09447999999998
absg34
(lp1214
sg36
I1
sg37
F0
sg38
(lp1215
sg40
F730.43511632893888
sg41
(lp1216
g2
(g43
g4
NtRp1217
(dp1218
g27
g2
(g19
g4
NtRp1219
(lp1220
F615
aF394.09447999999998
absg31
g2
(g19
g4
NtRp1221
(lp1222
F615
aF394.09447999999998
absg14
Nsg34
(lp1223
sg15
g1223
sg18
g2
(g19
g4
NtRp1224
(lp1225
F0
aF0
absg37
F0
sg38
(lp1226
sg25
(lp1227
sg41
g1227
sbasbasg30
F600
sg24
F314.09447999999998
sg103
g104
sg105
I01
sbsS'6'
g2
(g3
g4
NtRp1228
(dp1229
g7
F550
sg8
F394.09447999999998
sg9
(lp1230
g2
(g11
g4
NtRp1231
(dp1232
g14
Nsg15
(lp1233
sg17
I00
sg18
g2
(g19
g4
NtRp1234
(lp1235
F0
aF0
absg22
g23
sg24
F314.09447999999998
sg8
F314.09447999999998
sg25
(lp1236
sg27
g2
(g19
g4
NtRp1237
(lp1238
F500
aF314.09447999999998
absg30
F500
sg7
F500
sg31
g2
(g19
g4
NtRp1239
(lp1240
F500
aF314.09447999999998
absg34
(lp1241
sg36
I1
sg37
F0
sg38
(lp1242
sg40
F590.47044156881418
sg41
(lp1243
g2
(g43
g4
NtRp1244
(dp1245
g27
g2
(g19
g4
NtRp1246
(lp1247
F500
aF314.09447999999998
absg31
g2
(g19
g4
NtRp1248
(lp1249
F500
aF314.09447999999998
absg14
Nsg34
(lp1250
sg15
g1250
sg18
g2
(g19
g4
NtRp1251
(lp1252
F0
aF0
absg37
F0
sg38
(lp1253
sg25
(lp1254
sg41
g1254
sbasbag2
(g11
g4
NtRp1255
(dp1256
g14
Nsg15
(lp1257
sg17
I00
sg18
g2
(g19
g4
NtRp1258
(lp1259
F0
aF5
absg22
g23
sg24
F314.09447999999998
sg8
F319.09447999999998
sg25
(lp1260
sg27
g2
(g19
g4
NtRp1261
(lp1262
F500
aF319.09447999999998
absg30
F500
sg7
F500
sg31
g2
(g19
g4
NtRp1263
(lp1264
F500
aF314.09447999999998
absg34
(lp1265
sg36
I1
sg37
F5
sg38
(lp1266
sg40
F593.14524963660494
sg41
(lp1267
g2
(g43
g4
NtRp1268
(dp1269
g27
g2
(g19
g4
NtRp1270
(lp1271
F500
aF319.09447999999998
absg31
g2
(g19
g4
NtRp1272
(lp1273
F500
aF314.09447999999998
absg14
Nsg34
(lp1274
sg15
g1274
sg18
g2
(g19
g4
NtRp1275
(lp1276
F0
aF5
absg37
F5
sg38
(lp1277
sg25
(lp1278
sg41
g1278
sbasbag2
(g11
g4
NtRp1279
(dp1280
g14
Nsg15
(lp1281
sg17
I00
sg18
g2
(g19
g4
NtRp1282
(lp1283
F0
aF70
absg22
g23
sg24
F319.09447999999998
sg8
F389.09447999999998
sg25
(lp1284
sg27
g2
(g19
g4
NtRp1285
(lp1286
F500
aF389.09447999999998
absg30
F500
sg7
F500
sg31
g2
(g19
g4
NtRp1287
(lp1288
F500
aF319.09447999999998
absg34
(lp1289
sg36
I1
sg37
F70
sg38
(lp1290
sg40
F633.55703323889509
sg41
(lp1291
g2
(g43
g4
NtRp1292
(dp1293
g27
g2
(g19
g4
NtRp1294
(lp1295
F500
aF389.09447999999998
absg31
g2
(g19
g4
NtRp1296
(lp1297
F500
aF319.09447999999998
absg14
Nsg34
(lp1298
sg15
g1298
sg18
g2
(g19
g4
NtRp1299
(lp1300
F0
aF70
absg37
F70
sg38
(lp1301
sg25
(lp1302
sg41
g1302
sbasbag2
(g11
g4
NtRp1303
(dp1304
g14
Nsg15
(lp1305
sg17
I00
sg18
g2
(g19
g4
NtRp1306
(lp1307
F5
aF5
absg22
g23
sg24
F389.09447999999998
sg8
F394.09447999999998
sg25
(lp1308
sg27
g2
(g19
g4
NtRp1309
(lp1310
F505
aF394.09447999999998
absg30
F500
sg7
F505
sg31
g2
(g19
g4
NtRp1311
(lp1312
F500
aF389.09447999999998
absg34
(lp1313
sg36
I1
sg37
F7.0710678118654755
sg38
(lp1314
sg40
F640.57431978379407
sg41
(lp1315
g2
(g43
g4
NtRp1316
(dp1317
g27
g2
(g19
g4
NtRp1318
(lp1319
F505
aF394.09447999999998
absg31
g2
(g19
g4
NtRp1320
(lp1321
F500
aF389.09447999999998
absg14
Nsg34
(lp1322
sg15
g1322
sg18
g2
(g19
g4
NtRp1323
(lp1324
F5
aF5
absg37
F7.0710678118654755
sg38
(lp1325
sg25
(lp1326
sg41
g1326
sbasbag2
(g11
g4
NtRp1327
(dp1328
g14
Nsg15
(lp1329
sg17
I00
sg18
g2
(g19
g4
NtRp1330
(lp1331
F40
aF0
absg22
g23
sg24
F394.09447999999998
sg8
F394.09447999999998
sg25
(lp1332
sg27
g2
(g19
g4
NtRp1333
(lp1334
F545
aF394.09447999999998
absg30
F505
sg7
F545
sg31
g2
(g19
g4
NtRp1335
(lp1336
F505
aF394.09447999999998
absg34
(lp1337
sg36
I1
sg37
F40
sg38
(lp1338
sg40
F672.55888899520937
sg41
(lp1339
g2
(g43
g4
NtRp1340
(dp1341
g27
g2
(g19
g4
NtRp1342
(lp1343
F545
aF394.09447999999998
absg31
g2
(g19
g4
NtRp1344
(lp1345
F505
aF394.09447999999998
absg14
Nsg34
(lp1346
sg15
g1346
sg18
g2
(g19
g4
NtRp1347
(lp1348
F40
aF0
absg37
F40
sg38
(lp1349
sg25
(lp1350
sg41
g1350
sbasbag2
(g11
g4
NtRp1351
(dp1352
g14
Nsg15
(lp1353
sg17
I00
sg18
g2
(g19
g4
NtRp1354
(lp1355
F5
aF-5
absg22
g23
sg24
F389.09447999999998
sg8
F394.09447999999998
sg25
(lp1356
sg27
g2
(g19
g4
NtRp1357
(lp1358
F550
aF389.09447999999998
absg30
F545
sg7
F550
sg31
g2
(g19
g4
NtRp1359
(lp1360
F545
aF394.09447999999998
absg34
(lp1361
sg36
I1
sg37
F7.0710678118654755
sg38
(lp1362
sg40
F673.71693934950929
sg41
(lp1363
g2
(g43
g4
NtRp1364
(dp1365
g27
g2
(g19
g4
NtRp1366
(lp1367
F550
aF389.09447999999998
absg31
g2
(g19
g4
NtRp1368
(lp1369
F545
aF394.09447999999998
absg14
Nsg34
(lp1370
sg15
g1370
sg18
g2
(g19
g4
NtRp1371
(lp1372
F5
aF-5
absg37
F7.0710678118654755
sg38
(lp1373
sg25
(lp1374
sg41
g1374
sbasbag2
(g11
g4
NtRp1375
(dp1376
g14
Nsg15
(lp1377
sg17
I00
sg18
g2
(g19
g4
NtRp1378
(lp1379
F0
aF-30
absg22
g23
sg24
F359.09447999999998
sg8
F389.09447999999998
sg25
(lp1380
sg27
g2
(g19
g4
NtRp1381
(lp1382
F550
aF359.09447999999998
absg30
F550
sg7
F550
sg31
g2
(g19
g4
NtRp1383
(lp1384
F550
aF389.09447999999998
absg34
(lp1385
sg36
I1
sg37
F30
sg38
(lp1386
sg40
F673.71693934950929
sg41
(lp1387
g2
(g43
g4
NtRp1388
(dp1389
g27
g2
(g19
g4
NtRp1390
(lp1391
F550
aF359.09447999999998
absg31
g2
(g19
g4
NtRp1392
(lp1393
F550
aF389.09447999999998
absg14
Nsg34
(lp1394
sg15
g1394
sg18
g2
(g19
g4
NtRp1395
(lp1396
F0
aF-30
absg37
F30
sg38
(lp1397
sg25
(lp1398
sg41
g1398
sbasbag2
(g11
g4
NtRp1399
(dp1400
g14
Nsg15
(lp1401
sg17
I00
sg18
g2
(g19
g4
NtRp1402
(lp1403
F-5
aF-5
absg22
g23
sg24
F354.09447999999998
sg8
F359.09447999999998
sg25
(lp1404
sg27
g2
(g19
g4
NtRp1405
(lp1406
F545
aF354.09447999999998
absg30
F545
sg7
F550
sg31
g2
(g19
g4
NtRp1407
(lp1408
F550
aF359.09447999999998
absg34
(lp1409
sg36
I1
sg37
F7.0710678118654755
sg38
(lp1410
sg40
F656.84765780694568
sg41
(lp1411
g2
(g43
g4
NtRp1412
(dp1413
g27
g2
(g19
g4
NtRp1414
(lp1415
F545
aF354.09447999999998
absg31
g2
(g19
g4
NtRp1416
(lp1417
F550
aF359.09447999999998
absg14
Nsg34
(lp1418
sg15
g1418
sg18
g2
(g19
g4
NtRp1419
(lp1420
F-5
aF-5
absg37
F7.0710678118654755
sg38
(lp1421
sg25
(lp1422
sg41
g1422
sbasbag2
(g11
g4
NtRp1423
(dp1424
g14
Nsg15
(lp1425
sg17
I00
sg18
g2
(g19
g4
NtRp1426
(lp1427
F-45
aF0
absg22
g23
sg24
F354.09447999999998
sg8
F354.09447999999998
sg25
(lp1428
sg27
g2
(g19
g4
NtRp1429
(lp1430
F500
aF354.09447999999998
absg30
F500
sg7
F545
sg31
g2
(g19
g4
NtRp1431
(lp1432
F545
aF354.09447999999998
absg34
(lp1433
sg36
I1
sg37
F45
sg38
(lp1434
sg40
F649.92915057448408
sg41
(lp1435
g2
(g43
g4
NtRp1436
(dp1437
g27
g2
(g19
g4
NtRp1438
(lp1439
F500
aF354.09447999999998
absg31
g2
(g19
g4
NtRp1440
(lp1441
F545
aF354.09447999999998
absg14
Nsg34
(lp1442
sg15
g1442
sg18
g2
(g19
g4
NtRp1443
(lp1444
F-45
aF0
absg37
F45
sg38
(lp1445
sg25
(lp1446
sg41
g1446
sbasbasg30
F500
sg24
F314.09447999999998
sg103
g104
sg105
I01
sbsS'9'
g2
(g3
g4
NtRp1447
(dp1448
g7
F850
sg8
F394.09447999999998
sg9
(lp1449
g2
(g11
g4
NtRp1450
(dp1451
g14
Nsg15
(lp1452
sg17
I00
sg18
g2
(g19
g4
NtRp1453
(lp1454
F-45
aF0
absg22
g23
sg24
F354.09447999999998
sg8
F354.09447999999998
sg25
(lp1455
sg27
g2
(g19
g4
NtRp1456
(lp1457
F805
aF354.09447999999998
absg30
F805
sg7
F850
sg31
g2
(g19
g4
NtRp1458
(lp1459
F850
aF354.09447999999998
absg34
(lp1460
sg36
I1
sg37
F45
sg38
(lp1461
sg40
F920.80557164173933
sg41
(lp1462
g2
(g43
g4
NtRp1463
(dp1464
g27
g2
(g19
g4
NtRp1465
(lp1466
F805
aF354.09447999999998
absg31
g2
(g19
g4
NtRp1467
(lp1468
F850
aF354.09447999999998
absg14
Nsg34
(lp1469
sg15
g1469
sg18
g2
(g19
g4
NtRp1470
(lp1471
F-45
aF0
absg37
F45
sg38
(lp1472
sg25
(lp1473
sg41
g1473
sbasbag2
(g11
g4
NtRp1474
(dp1475
g14
Nsg15
(lp1476
sg17
I00
sg18
g2
(g19
g4
NtRp1477
(lp1478
F-5
aF-5
absg22
g23
sg24
F349.09447999999998
sg8
F354.09447999999998
sg25
(lp1479
sg27
g2
(g19
g4
NtRp1480
(lp1481
F800
aF349.09447999999998
absg30
F800
sg7
F805
sg31
g2
(g19
g4
NtRp1482
(lp1483
F805
aF354.09447999999998
absg34
(lp1484
sg36
I1
sg37
F7.0710678118654755
sg38
(lp1485
sg40
F879.43612659844166
sg41
(lp1486
g2
(g43
g4
NtRp1487
(dp1488
g27
g2
(g19
g4
NtRp1489
(lp1490
F800
aF349.09447999999998
absg31
g2
(g19
g4
NtRp1491
(lp1492
F805
aF354.09447999999998
absg14
Nsg34
(lp1493
sg15
g1493
sg18
g2
(g19
g4
NtRp1494
(lp1495
F-5
aF-5
absg37
F7.0710678118654755
sg38
(lp1496
sg25
(lp1497
sg41
g1497
sbasbag2
(g11
g4
NtRp1498
(dp1499
g14
Nsg15
(lp1500
sg17
I00
sg18
g2
(g19
g4
NtRp1501
(lp1502
F0
aF-30
absg22
g23
sg24
F319.09447999999998
sg8
F349.09447999999998
sg25
(lp1503
sg27
g2
(g19
g4
NtRp1504
(lp1505
F800
aF319.09447999999998
absg30
F800
sg7
F800
sg31
g2
(g19
g4
NtRp1506
(lp1507
F800
aF349.09447999999998
absg34
(lp1508
sg36
I1
sg37
F30
sg38
(lp1509
sg40
F872.84990460357528
sg41
(lp1510
g2
(g43
g4
NtRp1511
(dp1512
g27
g2
(g19
g4
NtRp1513
(lp1514
F800
aF319.09447999999998
absg31
g2
(g19
g4
NtRp1515
(lp1516
F800
aF349.09447999999998
absg14
Nsg34
(lp1517
sg15
g1517
sg18
g2
(g19
g4
NtRp1518
(lp1519
F0
aF-30
absg37
F30
sg38
(lp1520
sg25
(lp1521
sg41
g1521
sbasbag2
(g11
g4
NtRp1522
(dp1523
g14
Nsg15
(lp1524
sg17
I00
sg18
g2
(g19
g4
NtRp1525
(lp1526
F5
aF-5
absg22
g23
sg24
F314.09447999999998
sg8
F319.09447999999998
sg25
(lp1527
sg27
g2
(g19
g4
NtRp1528
(lp1529
F805
aF314.09447999999998
absg30
F800
sg7
F805
sg31
g2
(g19
g4
NtRp1530
(lp1531
F800
aF319.09447999999998
absg34
(lp1532
sg36
I1
sg37
F7.0710678118654755
sg38
(lp1533
sg40
F864.10667302507875
sg41
(lp1534
g2
(g43
g4
NtRp1535
(dp1536
g27
g2
(g19
g4
NtRp1537
(lp1538
F805
aF314.09447999999998
absg31
g2
(g19
g4
NtRp1539
(lp1540
F800
aF319.09447999999998
absg14
Nsg34
(lp1541
sg15
g1541
sg18
g2
(g19
g4
NtRp1542
(lp1543
F5
aF-5
absg37
F7.0710678118654755
sg38
(lp1544
sg25
(lp1545
sg41
g1545
sbasbag2
(g11
g4
NtRp1546
(dp1547
g14
Nsg15
(lp1548
sg17
I00
sg18
g2
(g19
g4
NtRp1549
(lp1550
F40
aF0
absg22
g23
sg24
F314.09447999999998
sg8
F314.09447999999998
sg25
(lp1551
sg27
g2
(g19
g4
NtRp1552
(lp1553
F845
aF314.09447999999998
absg30
F805
sg7
F845
sg31
g2
(g19
g4
NtRp1554
(lp1555
F805
aF314.09447999999998
absg34
(lp1556
sg36
I1
sg37
F40
sg38
(lp1557
sg40
F901.48784926169162
sg41
(lp1558
g2
(g43
g4
NtRp1559
(dp1560
g27
g2
(g19
g4
NtRp1561
(lp1562
F845
aF314.09447999999998
absg31
g2
(g19
g4
NtRp1563
(lp1564
F805
aF314.09447999999998
absg14
Nsg34
(lp1565
sg15
g1565
sg18
g2
(g19
g4
NtRp1566
(lp1567
F40
aF0
absg37
F40
sg38
(lp1568
sg25
(lp1569
sg41
g1569
sbasbag2
(g11
g4
NtRp1570
(dp1571
g14
Nsg15
(lp1572
sg17
I00
sg18
g2
(g19
g4
NtRp1573
(lp1574
F5
aF5
absg22
g23
sg24
F314.09447999999998
sg8
F319.09447999999998
sg25
(lp1575
sg27
g2
(g19
g4
NtRp1576
(lp1577
F850
aF319.09447999999998
absg30
F845
sg7
F850
sg31
g2
(g19
g4
NtRp1578
(lp1579
F845
aF314.09447999999998
absg34
(lp1580
sg36
I1
sg37
F7.0710678118654755
sg38
(lp1581
sg40
F907.92141023684997
sg41
(lp1582
g2
(g43
g4
NtRp1583
(dp1584
g27
g2
(g19
g4
NtRp1585
(lp1586
F850
aF319.09447999999998
absg31
g2
(g19
g4
NtRp1587
(lp1588
F845
aF314.09447999999998
absg14
Nsg34
(lp1589
sg15
g1589
sg18
g2
(g19
g4
NtRp1590
(lp1591
F5
aF5
absg37
F7.0710678118654755
sg38
(lp1592
sg25
(lp1593
sg41
g1593
sbasbag2
(g11
g4
NtRp1594
(dp1595
g14
Nsg15
(lp1596
sg17
I00
sg18
g2
(g19
g4
NtRp1597
(lp1598
F0
aF35
absg22
g23
sg24
F319.09447999999998
sg8
F354.09447999999998
sg25
(lp1599
sg27
g2
(g19
g4
NtRp1600
(lp1601
F850
aF354.09447999999998
absg30
F850
sg7
F850
sg31
g2
(g19
g4
NtRp1602
(lp1603
F850
aF319.09447999999998
absg34
(lp1604
sg36
I1
sg37
F35
sg38
(lp1605
sg40
F920.80557164173933
sg41
(lp1606
g2
(g43
g4
NtRp1607
(dp1608
g27
g2
(g19
g4
NtRp1609
(lp1610
F850
aF354.09447999999998
absg31
g2
(g19
g4
NtRp1611
(lp1612
F850
aF319.09447999999998
absg14
Nsg34
(lp1613
sg15
g1613
sg18
g2
(g19
g4
NtRp1614
(lp1615
F0
aF35
absg37
F35
sg38
(lp1616
sg25
(lp1617
sg41
g1617
sbasbag2
(g11
g4
NtRp1618
(dp1619
g14
Nsg15
(lp1620
sg17
I00
sg18
g2
(g19
g4
NtRp1621
(lp1622
F0
aF40
absg22
g23
sg24
F354.09447999999998
sg8
F394.09447999999998
sg25
(lp1623
sg27
g2
(g19
g4
NtRp1624
(lp1625
F850
aF394.09447999999998
absg30
F850
sg7
F850
sg31
g2
(g19
g4
NtRp1626
(lp1627
F850
aF354.09447999999998
absg34
(lp1628
sg36
I1
sg37
F40
sg38
(lp1629
sg40
F936.91539594910626
sg41
(lp1630
g2
(g43
g4
NtRp1631
(dp1632
g27
g2
(g19
g4
NtRp1633
(lp1634
F850
aF394.09447999999998
absg31
g2
(g19
g4
NtRp1635
(lp1636
F850
aF354.09447999999998
absg14
Nsg34
(lp1637
sg15
g1637
sg18
g2
(g19
g4
NtRp1638
(lp1639
F0
aF40
absg37
F40
sg38
(lp1640
sg25
(lp1641
sg41
g1641
sbasbag2
(g11
g4
NtRp1642
(dp1643
g14
Nsg15
(lp1644
sg17
I00
sg18
g2
(g19
g4
NtRp1645
(lp1646
F0
aF0
absg22
g23
sg24
F394.09447999999998
sg8
F394.09447999999998
sg25
(lp1647
sg27
g2
(g19
g4
NtRp1648
(lp1649
F850
aF394.09447999999998
absg30
F850
sg7
F850
sg31
g2
(g19
g4
NtRp1650
(lp1651
F850
aF394.09447999999998
absg34
(lp1652
sg36
I1
sg37
F0
sg38
(lp1653
sg40
F936.91539594910626
sg41
(lp1654
g2
(g43
g4
NtRp1655
(dp1656
g27
g2
(g19
g4
NtRp1657
(lp1658
F850
aF394.09447999999998
absg31
g2
(g19
g4
NtRp1659
(lp1660
F850
aF394.09447999999998
absg14
Nsg34
(lp1661
sg15
g1661
sg18
g2
(g19
g4
NtRp1662
(lp1663
F0
aF0
absg37
F0
sg38
(lp1664
sg25
(lp1665
sg41
g1665
sbasbasg30
F800
sg24
F314.09447999999998
sg103
g104
sg105
I01
sbsS'8'
g2
(g3
g4
NtRp1666
(dp1667
g7
F750
sg8
F394.09447999999998
sg9
(lp1668
g2
(g11
g4
NtRp1669
(dp1670
g14
Nsg15
(lp1671
sg17
I00
sg18
g2
(g19
g4
NtRp1672
(lp1673
F-5
aF5
absg22
g23
sg24
F314.09447999999998
sg8
F319.09447999999998
sg25
(lp1674
sg27
g2
(g19
g4
NtRp1675
(lp1676
F700
aF319.09447999999998
absg30
F700
sg7
F705
sg31
g2
(g19
g4
NtRp1677
(lp1678
F705
aF314.09447999999998
absg34
(lp1679
sg36
I1
sg37
F7.0710678118654755
sg38
(lp1680
sg40
F771.8033054907645
sg41
(lp1681
g2
(g43
g4
NtRp1682
(dp1683
g27
g2
(g19
g4
NtRp1684
(lp1685
F700
aF319.09447999999998
absg31
g2
(g19
g4
NtRp1686
(lp1687
F705
aF314.09447999999998
absg14
Nsg34
(lp1688
sg15
g1688
sg18
g2
(g19
g4
NtRp1689
(lp1690
F-5
aF5
absg37
F7.0710678118654755
sg38
(lp1691
sg25
(lp1692
sg41
g1692
sbasbag2
(g11
g4
NtRp1693
(dp1694
g14
Nsg15
(lp1695
sg17
I00
sg18
g2
(g19
g4
NtRp1696
(lp1697
F0
aF30
absg22
g23
sg24
F319.09447999999998
sg8
F349.09447999999998
sg25
(lp1698
sg27
g2
(g19
g4
NtRp1699
(lp1700
F700
aF349.09447999999998
absg30
F700
sg7
F700
sg31
g2
(g19
g4
NtRp1701
(lp1702
F700
aF319.09447999999998
absg34
(lp1703
sg36
I1
sg37
F30
sg38
(lp1704
sg40
F782.2192505726706
sg41
(lp1705
g2
(g43
g4
NtRp1706
(dp1707
g27
g2
(g19
g4
NtRp1708
(lp1709
F700
aF349.09447999999998
absg31
g2
(g19
g4
NtRp1710
(lp1711
F700
aF319.09447999999998
absg14
Nsg34
(lp1712
sg15
g1712
sg18
g2
(g19
g4
NtRp1713
(lp1714
F0
aF30
absg37
F30
sg38
(lp1715
sg25
(lp1716
sg41
g1716
sbasbag2
(g11
g4
NtRp1717
(dp1718
g14
Nsg15
(lp1719
sg17
I00
sg18
g2
(g19
g4
NtRp1720
(lp1721
F5
aF5
absg22
g23
sg24
F349.09447999999998
sg8
F354.09447999999998
sg25
(lp1722
sg27
g2
(g19
g4
NtRp1723
(lp1724
F705
aF354.09447999999998
absg30
F700
sg7
F705
sg31
g2
(g19
g4
NtRp1725
(lp1726
F700
aF349.09447999999998
absg34
(lp1727
sg36
I1
sg37
F7.0710678118654755
sg38
(lp1728
sg40
F788.92832422626986
sg41
(lp1729
g2
(g43
g4
NtRp1730
(dp1731
g27
g2
(g19
g4
NtRp1732
(lp1733
F705
aF354.09447999999998
absg31
g2
(g19
g4
NtRp1734
(lp1735
F700
aF349.09447999999998
absg14
Nsg34
(lp1736
sg15
g1736
sg18
g2
(g19
g4
NtRp1737
(lp1738
F5
aF5
absg37
F7.0710678118654755
sg38
(lp1739
sg25
(lp1740
sg41
g1740
sbasbag2
(g11
g4
NtRp1741
(dp1742
g14
Nsg15
(lp1743
sg17
I00
sg18
g2
(g19
g4
NtRp1744
(lp1745
F40
aF0
absg22
g23
sg24
F354.09447999999998
sg8
F354.09447999999998
sg25
(lp1746
sg27
g2
(g19
g4
NtRp1747
(lp1748
F745
aF354.09447999999998
absg30
F705
sg7
F745
sg31
g2
(g19
g4
NtRp1749
(lp1750
F705
aF354.09447999999998
absg34
(lp1751
sg36
I1
sg37
F40
sg38
(lp1752
sg40
F824.86841421312181
sg41
(lp1753
g2
(g43
g4
NtRp1754
(dp1755
g27
g2
(g19
g4
NtRp1756
(lp1757
F745
aF354.09447999999998
absg31
g2
(g19
g4
NtRp1758
(lp1759
F705
aF354.09447999999998
absg14
Nsg34
(lp1760
sg15
g1760
sg18
g2
(g19
g4
NtRp1761
(lp1762
F40
aF0
absg37
F40
sg38
(lp1763
sg25
(lp1764
sg41
g1764
sbasbag2
(g11
g4
NtRp1765
(dp1766
g14
Nsg15
(lp1767
sg17
I00
sg18
g2
(g19
g4
NtRp1768
(lp1769
F5
aF5
absg22
g23
sg24
F354.09447999999998
sg8
F359.09447999999998
sg25
(lp1770
sg27
g2
(g19
g4
NtRp1771
(lp1772
F750
aF359.09447999999998
absg30
F745
sg7
F750
sg31
g2
(g19
g4
NtRp1773
(lp1774
F745
aF354.09447999999998
absg34
(lp1775
sg36
I1
sg37
F7.0710678118654755
sg38
(lp1776
sg40
F831.53403151432735
sg41
(lp1777
g2
(g43
g4
NtRp1778
(dp1779
g27
g2
(g19
g4
NtRp1780
(lp1781
F750
aF359.09447999999998
absg31
g2
(g19
g4
NtRp1782
(lp1783
F745
aF354.09447999999998
absg14
Nsg34
(lp1784
sg15
g1784
sg18
g2
(g19
g4
NtRp1785
(lp1786
F5
aF5
absg37
F7.0710678118654755
sg38
(lp1787
sg25
(lp1788
sg41
g1788
sbasbag2
(g11
g4
NtRp1789
(dp1790
g14
Nsg15
(lp1791
sg17
I00
sg18
g2
(g19
g4
NtRp1792
(lp1793
F0
aF30
absg22
g23
sg24
F359.09447999999998
sg8
F389.09447999999998
sg25
(lp1794
sg27
g2
(g19
g4
NtRp1795
(lp1796
F750
aF389.09447999999998
absg30
F750
sg7
F750
sg31
g2
(g19
g4
NtRp1797
(lp1798
F750
aF359.09447999999998
absg34
(lp1799
sg36
I1
sg37
F30
sg38
(lp1800
sg40
F844.92278603815055
sg41
(lp1801
g2
(g43
g4
NtRp1802
(dp1803
g27
g2
(g19
g4
NtRp1804
(lp1805
F750
aF389.09447999999998
absg31
g2
(g19
g4
NtRp1806
(lp1807
F750
aF359.09447999999998
absg14
Nsg34
(lp1808
sg15
g1808
sg18
g2
(g19
g4
NtRp1809
(lp1810
F0
aF30
absg37
F30
sg38
(lp1811
sg25
(lp1812
sg41
g1812
sbasbag2
(g11
g4
NtRp1813
(dp1814
g14
Nsg15
(lp1815
sg17
I00
sg18
g2
(g19
g4
NtRp1816
(lp1817
F-5
aF5
absg22
g23
sg24
F389.09447999999998
sg8
F394.09447999999998
sg25
(lp1818
sg27
g2
(g19
g4
NtRp1819
(lp1820
F745
aF394.09447999999998
absg30
F745
sg7
F750
sg31
g2
(g19
g4
NtRp1821
(lp1822
F750
aF389.09447999999998
absg34
(lp1823
sg36
I1
sg37
F7.0710678118654755
sg38
(lp1824
sg40
F844.92278603815055
sg41
(lp1825
g2
(g43
g4
NtRp1826
(dp1827
g27
g2
(g19
g4
NtRp1828
(lp1829
F745
aF394.09447999999998
absg31
g2
(g19
g4
NtRp1830
(lp1831
F750
aF389.09447999999998
absg14
Nsg34
(lp1832
sg15
g1832
sg18
g2
(g19
g4
NtRp1833
(lp1834
F-5
aF5
absg37
F7.0710678118654755
sg38
(lp1835
sg25
(lp1836
sg41
g1836
sbasbag2
(g11
g4
NtRp1837
(dp1838
g14
Nsg15
(lp1839
sg17
I00
sg18
g2
(g19
g4
NtRp1840
(lp1841
F-40
aF0
absg22
g23
sg24
F394.09447999999998
sg8
F394.09447999999998
sg25
(lp1842
sg27
g2
(g19
g4
NtRp1843
(lp1844
F705
aF394.09447999999998
absg30
F705
sg7
F745
sg31
g2
(g19
g4
NtRp1845
(lp1846
F745
aF394.09447999999998
absg34
(lp1847
sg36
I1
sg37
F40
sg38
(lp1848
sg40
F842.81401220344605
sg41
(lp1849
g2
(g43
g4
NtRp1850
(dp1851
g27
g2
(g19
g4
NtRp1852
(lp1853
F705
aF394.09447999999998
absg31
g2
(g19
g4
NtRp1854
(lp1855
F745
aF394.09447999999998
absg14
Nsg34
(lp1856
sg15
g1856
sg18
g2
(g19
g4
NtRp1857
(lp1858
F-40
aF0
absg37
F40
sg38
(lp1859
sg25
(lp1860
sg41
g1860
sbasbag2
(g11
g4
NtRp1861
(dp1862
g14
Nsg15
(lp1863
sg17
I00
sg18
g2
(g19
g4
NtRp1864
(lp1865
F-5
aF-5
absg22
g23
sg24
F389.09447999999998
sg8
F394.09447999999998
sg25
(lp1866
sg27
g2
(g19
g4
NtRp1867
(lp1868
F700
aF389.09447999999998
absg30
F700
sg7
F705
sg31
g2
(g19
g4
NtRp1869
(lp1870
F705
aF394.09447999999998
absg34
(lp1871
sg36
I1
sg37
F7.0710678118654755
sg38
(lp1872
sg40
F807.67286642951581
sg41
(lp1873
g2
(g43
g4
NtRp1874
(dp1875
g27
g2
(g19
g4
NtRp1876
(lp1877
F700
aF389.09447999999998
absg31
g2
(g19
g4
NtRp1878
(lp1879
F705
aF394.09447999999998
absg14
Nsg34
(lp1880
sg15
g1880
sg18
g2
(g19
g4
NtRp1881
(lp1882
F-5
aF-5
absg37
F7.0710678118654755
sg38
(lp1883
sg25
(lp1884
sg41
g1884
sbasbag2
(g11
g4
NtRp1885
(dp1886
g14
Nsg15
(lp1887
sg17
I00
sg18
g2
(g19
g4
NtRp1888
(lp1889
F0
aF-30
absg22
g23
sg24
F359.09447999999998
sg8
F389.09447999999998
sg25
(lp1890
sg27
g2
(g19
g4
NtRp1891
(lp1892
F700
aF359.09447999999998
absg30
F700
sg7
F700
sg31
g2
(g19
g4
NtRp1893
(lp1894
F700
aF389.09447999999998
absg34
(lp1895
sg36
I1
sg37
F30
sg38
(lp1896
sg40
F800.87109722256207
sg41
(lp1897
g2
(g43
g4
NtRp1898
(dp1899
g27
g2
(g19
g4
NtRp1900
(lp1901
F700
aF359.09447999999998
absg31
g2
(g19
g4
NtRp1902
(lp1903
F700
aF389.09447999999998
absg14
Nsg34
(lp1904
sg15
g1904
sg18
g2
(g19
g4
NtRp1905
(lp1906
F0
aF-30
absg37
F30
sg38
(lp1907
sg25
(lp1908
sg41
g1908
sbasbag2
(g11
g4
NtRp1909
(dp1910
g14
Nsg15
(lp1911
sg17
I00
sg18
g2
(g19
g4
NtRp1912
(lp1913
F5
aF-5
absg22
g23
sg24
F354.09447999999998
sg8
F359.09447999999998
sg25
(lp1914
sg27
g2
(g19
g4
NtRp1915
(lp1916
F705
aF354.09447999999998
absg30
F700
sg7
F705
sg31
g2
(g19
g4
NtRp1917
(lp1918
F700
aF359.09447999999998
absg34
(lp1919
sg36
I1
sg37
F7.0710678118654755
sg38
(lp1920
sg40
F788.92832422626986
sg41
(lp1921
g2
(g43
g4
NtRp1922
(dp1923
g27
g2
(g19
g4
NtRp1924
(lp1925
F705
aF354.09447999999998
absg31
g2
(g19
g4
NtRp1926
(lp1927
F700
aF359.09447999999998
absg14
Nsg34
(lp1928
sg15
g1928
sg18
g2
(g19
g4
NtRp1929
(lp1930
F5
aF-5
absg37
F7.0710678118654755
sg38
(lp1931
sg25
(lp1932
sg41
g1932
sbasbag2
(g11
g4
NtRp1933
(dp1934
g14
Nsg15
(lp1935
sg17
I00
sg18
g2
(g19
g4
NtRp1936
(lp1937
F40
aF0
absg22
g23
sg24
F354.09447999999998
sg8
F354.09447999999998
sg25
(lp1938
sg27
g2
(g19
g4
NtRp1939
(lp1940
F745
aF354.09447999999998
absg30
F705
sg7
F745
sg31
g2
(g19
g4
NtRp1941
(lp1942
F705
aF354.09447999999998
absg34
(lp1943
sg36
I1
sg37
F40
sg38
(lp1944
sg40
F824.86841421312181
sg41
(lp1945
g2
(g43
g4
NtRp1946
(dp1947
g27
g2
(g19
g4
NtRp1948
(lp1949
F745
aF354.09447999999998
absg31
g2
(g19
g4
NtRp1950
(lp1951
F705
aF354.09447999999998
absg14
Nsg34
(lp1952
sg15
g1952
sg18
g2
(g19
g4
NtRp1953
(lp1954
F40
aF0
absg37
F40
sg38
(lp1955
sg25
(lp1956
sg41
g1956
sbasbag2
(g11
g4
NtRp1957
(dp1958
g14
Nsg15
(lp1959
sg17
I00
sg18
g2
(g19
g4
NtRp1960
(lp1961
F5
aF-5
absg22
g23
sg24
F349.09447999999998
sg8
F354.09447999999998
sg25
(lp1962
sg27
g2
(g19
g4
NtRp1963
(lp1964
F750
aF349.09447999999998
absg30
F745
sg7
F750
sg31
g2
(g19
g4
NtRp1965
(lp1966
F745
aF354.09447999999998
absg34
(lp1967
sg36
I1
sg37
F7.0710678118654755
sg38
(lp1968
sg40
F827.26474357757468
sg41
(lp1969
g2
(g43
g4
NtRp1970
(dp1971
g27
g2
(g19
g4
NtRp1972
(lp1973
F750
aF349.09447999999998
absg31
g2
(g19
g4
NtRp1974
(lp1975
F745
aF354.09447999999998
absg14
Nsg34
(lp1976
sg15
g1976
sg18
g2
(g19
g4
NtRp1977
(lp1978
F5
aF-5
absg37
F7.0710678118654755
sg38
(lp1979
sg25
(lp1980
sg41
g1980
sbasbag2
(g11
g4
NtRp1981
(dp1982
g14
Nsg15
(lp1983
sg17
I00
sg18
g2
(g19
g4
NtRp1984
(lp1985
F0
aF-30
absg22
g23
sg24
F319.09447999999998
sg8
F349.09447999999998
sg25
(lp1986
sg27
g2
(g19
g4
NtRp1987
(lp1988
F750
aF319.09447999999998
absg30
F750
sg7
F750
sg31
g2
(g19
g4
NtRp1989
(lp1990
F750
aF349.09447999999998
absg34
(lp1991
sg36
I1
sg37
F30
sg38
(lp1992
sg40
F827.26474357757468
sg41
(lp1993
g2
(g43
g4
NtRp1994
(dp1995
g27
g2
(g19
g4
NtRp1996
(lp1997
F750
aF319.09447999999998
absg31
g2
(g19
g4
NtRp1998
(lp1999
F750
aF349.09447999999998
absg14
Nsg34
(lp2000
sg15
g2000
sg18
g2
(g19
g4
NtRp2001
(lp2002
F0
aF-30
absg37
F30
sg38
(lp2003
sg25
(lp2004
sg41
g2004
sbasbag2
(g11
g4
NtRp2005
(dp2006
g14
Nsg15
(lp2007
sg17
I00
sg18
g2
(g19
g4
NtRp2008
(lp2009
F-5
aF-5
absg22
g23
sg24
F314.09447999999998
sg8
F319.09447999999998
sg25
(lp2010
sg27
g2
(g19
g4
NtRp2011
(lp2012
F745
aF314.09447999999998
absg30
F745
sg7
F750
sg31
g2
(g19
g4
NtRp2013
(lp2014
F750
aF319.09447999999998
absg34
(lp2015
sg36
I1
sg37
F7.0710678118654755
sg38
(lp2016
sg40
F815.05906974063566
sg41
(lp2017
g2
(g43
g4
NtRp2018
(dp2019
g27
g2
(g19
g4
NtRp2020
(lp2021
F745
aF314.09447999999998
absg31
g2
(g19
g4
NtRp2022
(lp2023
F750
aF319.09447999999998
absg14
Nsg34
(lp2024
sg15
g2024
sg18
g2
(g19
g4
NtRp2025
(lp2026
F-5
aF-5
absg37
F7.0710678118654755
sg38
(lp2027
sg25
(lp2028
sg41
g2028
sbasbag2
(g11
g4
NtRp2029
(dp2030
g14
Nsg15
(lp2031
sg17
I00
sg18
g2
(g19
g4
NtRp2032
(lp2033
F-40
aF0
absg22
g23
sg24
F314.09447999999998
sg8
F314.09447999999998
sg25
(lp2034
sg27
g2
(g19
g4
NtRp2035
(lp2036
F705
aF314.09447999999998
absg30
F705
sg7
F745
sg31
g2
(g19
g4
NtRp2037
(lp2038
F745
aF314.09447999999998
absg34
(lp2039
sg36
I1
sg37
F40
sg38
(lp2040
sg40
F808.5050045401515
sg41
(lp2041
g2
(g43
g4
NtRp2042
(dp2043
g27
g2
(g19
g4
NtRp2044
(lp2045
F705
aF314.09447999999998
absg31
g2
(g19
g4
NtRp2046
(lp2047
F745
aF314.09447999999998
absg14
Nsg34
(lp2048
sg15
g2048
sg18
g2
(g19
g4
NtRp2049
(lp2050
F-40
aF0
absg37
F40
sg38
(lp2051
sg25
(lp2052
sg41
g2052
sbasbasg30
F700
sg24
F314.09447999999998
sg103
g104
sg105
I01
sbsS'A'
g2
(g3
g4
NtRp2053
(dp2054
g7
I50
sg8
F104.09448
sg9
(lp2055
g2
(g11
g4
NtRp2056
(dp2057
g14
Nsg15
(lp2058
sg17
I00
sg18
g2
(g19
g4
NtRp2059
(lp2060
I25
aF-79.999998000000005
absg22
g23
sg24
F24.094481999999999
sg8
F104.09448
sg25
(lp2061
sg27
g2
(g19
g4
NtRp2062
(lp2063
I25
aF24.094481999999999
absg30
I0
sg7
I25
sg31
g2
(g19
g4
NtRp2064
(lp2065
I0
aF104.09448
absg34
(lp2066
sg36
I1
sg37
F83.815271162241103
sg38
(lp2067
sg40
F104.09448
sg41
(lp2068
g2
(g43
g4
NtRp2069
(dp2070
g27
g2
(g19
g4
NtRp2071
(lp2072
I25
aF24.094481999999999
absg31
g2
(g19
g4
NtRp2073
(lp2074
I0
aF104.09448
absg14
Nsg34
(lp2075
sg15
g2075
sg18
g2
(g19
g4
NtRp2076
(lp2077
I25
aF-79.999998000000005
absg37
F83.815271162241103
sg38
(lp2078
sg25
(lp2079
sg41
g2079
sbasbag2
(g11
g4
NtRp2080
(dp2081
g14
Nsg15
(lp2082
sg17
I00
sg18
g2
(g19
g4
NtRp2083
(lp2084
I25
aF79.999998000000005
absg22
g23
sg24
F24.094481999999999
sg8
F104.09448
sg25
(lp2085
sg27
g2
(g19
g4
NtRp2086
(lp2087
I50
aF104.09448
absg30
I25
sg7
I50
sg31
g2062
sg34
(lp2088
sg36
I1
sg37
F83.815271162241103
sg38
(lp2089
sg40
F115.48013147927396
sg41
(lp2090
g2
(g43
g4
NtRp2091
(dp2092
g27
g2
(g19
g4
NtRp2093
(lp2094
I50
aF104.09448
absg31
g2
(g19
g4
NtRp2095
(lp2096
I25
aF24.094481999999999
absg14
Nsg34
(lp2097
sg15
g2097
sg18
g2
(g19
g4
NtRp2098
(lp2099
I25
aF79.999998000000005
absg37
F83.815271162241103
sg38
(lp2100
sg25
(lp2101
sg41
g2101
sbasbag2
(g11
g4
NtRp2102
(dp2103
g14
Nsg15
(lp2104
sg17
I00
sg18
g2
(g19
g4
NtRp2105
(lp2106
F25
aF0
absg22
g23
sg24
F64.094481000000002
sg8
F64.094481000000002
sg25
(lp2107
sg27
g2
(g19
g4
NtRp2108
(lp2109
F37.5
aF64.094481000000002
absg30
F12.5
sg7
F37.5
sg31
g2
(g19
g4
NtRp2110
(lp2111
F12.5
aF64.094481000000002
absg34
(lp2112
sg36
I1
sg37
F25
sg38
(lp2113
sg40
F74.258686324627107
sg41
(lp2114
g2
(g43
g4
NtRp2115
(dp2116
g27
g2
(g19
g4
NtRp2117
(lp2118
F37.5
aF64.094481000000002
absg31
g2
(g19
g4
NtRp2119
(lp2120
F12.5
aF64.094481000000002
absg14
Nsg34
(lp2121
sg15
g2121
sg18
g2
(g19
g4
NtRp2122
(lp2123
F25
aF0
absg37
F25
sg38
(lp2124
sg25
(lp2125
sg41
g2125
sbasbasg30
I0
sg24
F24.094481999999999
sg103
g104
sg105
I01
sbsS'C'
g2
(g3
g4
NtRp2126
(dp2127
g7
F250
sg8
F104.09448
sg9
(lp2128
g2
(g11
g4
NtRp2129
(dp2130
g14
Nsg15
(lp2131
sg17
I00
sg18
g2
(g19
g4
NtRp2132
(lp2133
F-40
aF0
absg22
g23
sg24
F24.094481999999999
sg8
F24.094481999999999
sg25
(lp2134
sg27
g2
(g19
g4
NtRp2135
(lp2136
F210
aF24.094481999999999
absg30
F210
sg7
F250
sg31
g2
(g19
g4
NtRp2137
(lp2138
F250
aF24.094481999999999
absg34
(lp2139
sg36
I1
sg37
F40
sg38
(lp2140
sg40
F251.15840432453842
sg41
(lp2141
g2
(g43
g4
NtRp2142
(dp2143
g27
g2
(g19
g4
NtRp2144
(lp2145
F210
aF24.094481999999999
absg31
g2
(g19
g4
NtRp2146
(lp2147
F250
aF24.094481999999999
absg14
Nsg34
(lp2148
sg15
g2148
sg18
g2
(g19
g4
NtRp2149
(lp2150
F-40
aF0
absg37
F40
sg38
(lp2151
sg25
(lp2152
sg41
g2152
sbasbag2
(g11
g4
NtRp2153
(dp2154
g14
Nsg15
(lp2155
sg17
I00
sg18
g2
(g19
g4
NtRp2156
(lp2157
F-10
aF20
absg22
g23
sg24
F24.094481999999999
sg8
F44.094481999999999
sg25
(lp2158
sg27
g2
(g19
g4
NtRp2159
(lp2160
F200
aF44.094481999999999
absg30
F200
sg7
F210
sg31
g2
(g19
g4
NtRp2161
(lp2162
F210
aF24.094481999999999
absg34
(lp2163
sg36
I1
sg37
F22.360679774997898
sg38
(lp2164
sg40
F211.37772839835404
sg41
(lp2165
g2
(g43
g4
NtRp2166
(dp2167
g27
g2
(g19
g4
NtRp2168
(lp2169
F200
aF44.094481999999999
absg31
g2
(g19
g4
NtRp2170
(lp2171
F210
aF24.094481999999999
absg14
Nsg34
(lp2172
sg15
g2172
sg18
g2
(g19
g4
NtRp2173
(lp2174
F-10
aF20
absg37
F22.360679774997898
sg38
(lp2175
sg25
(lp2176
sg41
g2176
sbasbag2
(g11
g4
NtRp2177
(dp2178
g14
Nsg15
(lp2179
sg17
I00
sg18
g2
(g19
g4
NtRp2180
(lp2181
F0
aF40
absg22
g23
sg24
F44.094481999999999
sg8
F84.094481999999999
sg25
(lp2182
sg27
g2
(g19
g4
NtRp2183
(lp2184
F200
aF84.094481999999999
absg30
F200
sg7
F200
sg31
g2
(g19
g4
NtRp2185
(lp2186
F200
aF44.094481999999999
absg34
(lp2187
sg36
I1
sg37
F40
sg38
(lp2188
sg40
F216.9605537945742
sg41
(lp2189
g2
(g43
g4
NtRp2190
(dp2191
g27
g2
(g19
g4
NtRp2192
(lp2193
F200
aF84.094481999999999
absg31
g2
(g19
g4
NtRp2194
(lp2195
F200
aF44.094481999999999
absg14
Nsg34
(lp2196
sg15
g2196
sg18
g2
(g19
g4
NtRp2197
(lp2198
F0
aF40
absg37
F40
sg38
(lp2199
sg25
(lp2200
sg41
g2200
sbasbag2
(g11
g4
NtRp2201
(dp2202
g14
Nsg15
(lp2203
sg17
I00
sg18
g2
(g19
g4
NtRp2204
(lp2205
F10
aF19.999998000000005
absg22
g23
sg24
F84.094481999999999
sg8
F104.09448
sg25
(lp2206
sg27
g2
(g19
g4
NtRp2207
(lp2208
F210
aF104.09448
absg30
F200
sg7
F210
sg31
g2
(g19
g4
NtRp2209
(lp2210
F200
aF84.094481999999999
absg34
(lp2211
sg36
I1
sg37
F22.360677986143536
sg38
(lp2212
sg40
F234.3835761448963
sg41
(lp2213
g2
(g43
g4
NtRp2214
(dp2215
g27
g2
(g19
g4
NtRp2216
(lp2217
F210
aF104.09448
absg31
g2
(g19
g4
NtRp2218
(lp2219
F200
aF84.094481999999999
absg14
Nsg34
(lp2220
sg15
g2220
sg18
g2
(g19
g4
NtRp2221
(lp2222
F10
aF19.999998000000005
absg37
F22.360677986143536
sg38
(lp2223
sg25
(lp2224
sg41
g2224
sbasbag2
(g11
g4
NtRp2225
(dp2226
g14
Nsg15
(lp2227
sg17
I00
sg18
g2
(g19
g4
NtRp2228
(lp2229
F40
aF0
absg22
g23
sg24
F104.09448
sg8
F104.09448
sg25
(lp2230
sg27
g2
(g19
g4
NtRp2231
(lp2232
F250
aF104.09448
absg30
F210
sg7
F250
sg31
g2
(g19
g4
NtRp2233
(lp2234
F210
aF104.09448
absg34
(lp2235
sg36
I1
sg37
F40
sg38
(lp2236
sg40
F270.8055774286608
sg41
(lp2237
g2
(g43
g4
NtRp2238
(dp2239
g27
g2
(g19
g4
NtRp2240
(lp2241
F250
aF104.09448
absg31
g2
(g19
g4
NtRp2242
(lp2243
F210
aF104.09448
absg14
Nsg34
(lp2244
sg15
g2244
sg18
g2
(g19
g4
NtRp2245
(lp2246
F40
aF0
absg37
F40
sg38
(lp2247
sg25
(lp2248
sg41
g2248
sbasbasg30
F200
sg24
F24.094481999999999
sg103
g104
sg105
I01
sbsS'B'
g2
(g3
g4
NtRp2249
(dp2250
g7
F150
sg8
F104.09448
sg9
(lp2251
g2
(g11
g4
NtRp2252
(dp2253
g14
Nsg15
(lp2254
sg17
I00
sg18
g2
(g19
g4
NtRp2255
(lp2256
F0
aF-79.999998000000005
absg22
g23
sg24
F24.094481999999999
sg8
F104.09448
sg25
(lp2257
sg27
g2
(g19
g4
NtRp2258
(lp2259
F100
aF24.094481999999999
absg30
F100
sg7
F100
sg31
g2
(g19
g4
NtRp2260
(lp2261
F100
aF104.09448
absg34
(lp2262
sg36
I1
sg37
F79.999998000000005
sg38
(lp2263
sg40
F144.34562953713007
sg41
(lp2264
g2
(g43
g4
NtRp2265
(dp2266
g27
g2
(g19
g4
NtRp2267
(lp2268
F100
aF24.094481999999999
absg31
g2
(g19
g4
NtRp2269
(lp2270
F100
aF104.09448
absg14
Nsg34
(lp2271
sg15
g2271
sg18
g2
(g19
g4
NtRp2272
(lp2273
F0
aF-79.999998000000005
absg37
F79.999998000000005
sg38
(lp2274
sg25
(lp2275
sg41
g2275
sbasbag2
(g11
g4
NtRp2276
(dp2277
g14
Nsg15
(lp2278
sg17
I00
sg18
g2
(g19
g4
NtRp2279
(lp2280
F40
aF0
absg22
g23
sg24
F24.094481999999999
sg8
F24.094481999999999
sg25
(lp2281
sg27
g2
(g19
g4
NtRp2282
(lp2283
F140
aF24.094481999999999
absg30
F100
sg7
F140
sg31
g2
(g19
g4
NtRp2284
(lp2285
F100
aF24.094481999999999
absg34
(lp2286
sg36
I1
sg37
F40
sg38
(lp2287
sg40
F142.05824179838467
sg41
(lp2288
g2
(g43
g4
NtRp2289
(dp2290
g27
g2
(g19
g4
NtRp2291
(lp2292
F140
aF24.094481999999999
absg31
g2
(g19
g4
NtRp2293
(lp2294
F100
aF24.094481999999999
absg14
Nsg34
(lp2295
sg15
g2295
sg18
g2
(g19
g4
NtRp2296
(lp2297
F40
aF0
absg37
F40
sg38
(lp2298
sg25
(lp2299
sg41
g2299
sbasbag2
(g11
g4
NtRp2300
(dp2301
g14
Nsg15
(lp2302
sg17
I00
sg18
g2
(g19
g4
NtRp2303
(lp2304
F10
aF10
absg22
g23
sg24
F24.094481999999999
sg8
F34.094481999999999
sg25
(lp2305
sg27
g2
(g19
g4
NtRp2306
(lp2307
F150
aF34.094481999999999
absg30
F140
sg7
F150
sg31
g2
(g19
g4
NtRp2308
(lp2309
F140
aF24.094481999999999
absg34
(lp2310
sg36
I1
sg37
F14.142135623730951
sg38
(lp2311
sg40
F153.82598513530905
sg41
(lp2312
g2
(g43
g4
NtRp2313
(dp2314
g27
g2
(g19
g4
NtRp2315
(lp2316
F150
aF34.094481999999999
absg31
g2
(g19
g4
NtRp2317
(lp2318
F140
aF24.094481999999999
absg14
Nsg34
(lp2319
sg15
g2319
sg18
g2
(g19
g4
NtRp2320
(lp2321
F10
aF10
absg37
F14.142135623730951
sg38
(lp2322
sg25
(lp2323
sg41
g2323
sbasbag2
(g11
g4
NtRp2324
(dp2325
g14
Nsg15
(lp2326
sg17
I00
sg18
g2
(g19
g4
NtRp2327
(lp2328
F0
aF20
absg22
g23
sg24
F34.094481999999999
sg8
F54.094481999999999
sg25
(lp2329
sg27
g2
(g19
g4
NtRp2330
(lp2331
F150
aF54.094481999999999
absg30
F150
sg7
F150
sg31
g2
(g19
g4
NtRp2332
(lp2333
F150
aF34.094481999999999
absg34
(lp2334
sg36
I1
sg37
F20
sg38
(lp2335
sg40
F159.45599073991644
sg41
(lp2336
g2
(g43
g4
NtRp2337
(dp2338
g27
g2
(g19
g4
NtRp2339
(lp2340
F150
aF54.094481999999999
absg31
g2
(g19
g4
NtRp2341
(lp2342
F150
aF34.094481999999999
absg14
Nsg34
(lp2343
sg15
g2343
sg18
g2
(g19
g4
NtRp2344
(lp2345
F0
aF20
absg37
F20
sg38
(lp2346
sg25
(lp2347
sg41
g2347
sbasbag2
(g11
g4
NtRp2348
(dp2349
g14
Nsg15
(lp2350
sg17
I00
sg18
g2
(g19
g4
NtRp2351
(lp2352
F-10
aF10
absg22
g23
sg24
F54.094481999999999
sg8
F64.094481999999999
sg25
(lp2353
sg27
g2
(g19
g4
NtRp2354
(lp2355
F140
aF64.094481999999999
absg30
F140
sg7
F150
sg31
g2
(g19
g4
NtRp2356
(lp2357
F150
aF54.094481999999999
absg34
(lp2358
sg36
I1
sg37
F14.142135623730951
sg38
(lp2359
sg40
F159.45599073991644
sg41
(lp2360
g2
(g43
g4
NtRp2361
(dp2362
g27
g2
(g19
g4
NtRp2363
(lp2364
F140
aF64.094481999999999
absg31
g2
(g19
g4
NtRp2365
(lp2366
F150
aF54.094481999999999
absg14
Nsg34
(lp2367
sg15
g2367
sg18
g2
(g19
g4
NtRp2368
(lp2369
F-10
aF10
absg37
F14.142135623730951
sg38
(lp2370
sg25
(lp2371
sg41
g2371
sbasbag2
(g11
g4
NtRp2372
(dp2373
g14
Nsg15
(lp2374
sg17
I00
sg18
g2
(g19
g4
NtRp2375
(lp2376
F10
aF10
absg22
g23
sg24
F64.094481999999999
sg8
F74.094481999999999
sg25
(lp2377
sg27
g2
(g19
g4
NtRp2378
(lp2379
F150
aF74.094481999999999
absg30
F140
sg7
F150
sg31
g2
(g19
g4
NtRp2380
(lp2381
F140
aF64.094481999999999
absg34
(lp2382
sg36
I1
sg37
F14.142135623730951
sg38
(lp2383
sg40
F167.3020987998905
sg41
(lp2384
g2
(g43
g4
NtRp2385
(dp2386
g27
g2
(g19
g4
NtRp2387
(lp2388
F150
aF74.094481999999999
absg31
g2
(g19
g4
NtRp2389
(lp2390
F140
aF64.094481999999999
absg14
Nsg34
(lp2391
sg15
g2391
sg18
g2
(g19
g4
NtRp2392
(lp2393
F10
aF10
absg37
F14.142135623730951
sg38
(lp2394
sg25
(lp2395
sg41
g2395
sbasbag2
(g11
g4
NtRp2396
(dp2397
g14
Nsg15
(lp2398
sg17
I00
sg18
g2
(g19
g4
NtRp2399
(lp2400
F0
aF20
absg22
g23
sg24
F74.094481999999999
sg8
F94.094481999999999
sg25
(lp2401
sg27
g2
(g19
g4
NtRp2402
(lp2403
F150
aF94.094481999999999
absg30
F150
sg7
F150
sg31
g2
(g19
g4
NtRp2404
(lp2405
F150
aF74.094481999999999
absg34
(lp2406
sg36
I1
sg37
F20
sg38
(lp2407
sg40
F177.06996228284549
sg41
(lp2408
g2
(g43
g4
NtRp2409
(dp2410
g27
g2
(g19
g4
NtRp2411
(lp2412
F150
aF94.094481999999999
absg31
g2
(g19
g4
NtRp2413
(lp2414
F150
aF74.094481999999999
absg14
Nsg34
(lp2415
sg15
g2415
sg18
g2
(g19
g4
NtRp2416
(lp2417
F0
aF20
absg37
F20
sg38
(lp2418
sg25
(lp2419
sg41
g2419
sbasbag2
(g11
g4
NtRp2420
(dp2421
g14
Nsg15
(lp2422
sg17
I00
sg18
g2
(g19
g4
NtRp2423
(lp2424
F-10
aF9.999998000000005
absg22
g23
sg24
F94.094481999999999
sg8
F104.09448
sg25
(lp2425
sg27
g2
(g19
g4
NtRp2426
(lp2427
F140
aF104.09448
absg30
F140
sg7
F150
sg31
g2
(g19
g4
NtRp2428
(lp2429
F150
aF94.094481999999999
absg34
(lp2430
sg36
I1
sg37
F14.142134209517462
sg38
(lp2431
sg40
F177.06996228284549
sg41
(lp2432
g2
(g43
g4
NtRp2433
(dp2434
g27
g2
(g19
g4
NtRp2435
(lp2436
F140
aF104.09448
absg31
g2
(g19
g4
NtRp2437
(lp2438
F150
aF94.094481999999999
absg14
Nsg34
(lp2439
sg15
g2439
sg18
g2
(g19
g4
NtRp2440
(lp2441
F-10
aF9.999998000000005
absg37
F14.142134209517462
sg38
(lp2442
sg25
(lp2443
sg41
g2443
sbasbag2
(g11
g4
NtRp2444
(dp2445
g14
Nsg15
(lp2446
sg17
I00
sg18
g2
(g19
g4
NtRp2447
(lp2448
F-40
aF0
absg22
g23
sg24
F104.09448
sg8
F104.09448
sg25
(lp2449
sg27
g2
(g19
g4
NtRp2450
(lp2451
F100
aF104.09448
absg30
F100
sg7
F140
sg31
g2
(g19
g4
NtRp2452
(lp2453
F140
aF104.09448
absg34
(lp2454
sg36
I1
sg37
F40
sg38
(lp2455
sg40
F174.45819203026954
sg41
(lp2456
g2
(g43
g4
NtRp2457
(dp2458
g27
g2
(g19
g4
NtRp2459
(lp2460
F100
aF104.09448
absg31
g2
(g19
g4
NtRp2461
(lp2462
F140
aF104.09448
absg14
Nsg34
(lp2463
sg15
g2463
sg18
g2
(g19
g4
NtRp2464
(lp2465
F-40
aF0
absg37
F40
sg38
(lp2466
sg25
(lp2467
sg41
g2467
sbasbag2
(g11
g4
NtRp2468
(dp2469
g14
Nsg15
(lp2470
sg17
I00
sg18
g2
(g19
g4
NtRp2471
(lp2472
F40
aF0
absg22
g23
sg24
F64.094481999999999
sg8
F64.094481999999999
sg25
(lp2473
sg27
g2
(g19
g4
NtRp2474
(lp2475
F140
aF64.094481999999999
absg30
F100
sg7
F140
sg31
g2
(g19
g4
NtRp2476
(lp2477
F100
aF64.094481999999999
absg34
(lp2478
sg36
I1
sg37
F40
sg38
(lp2479
sg40
F153.97435703015071
sg41
(lp2480
g2
(g43
g4
NtRp2481
(dp2482
g27
g2
(g19
g4
NtRp2483
(lp2484
F140
aF64.094481999999999
absg31
g2
(g19
g4
NtRp2485
(lp2486
F100
aF64.094481999999999
absg14
Nsg34
(lp2487
sg15
g2487
sg18
g2
(g19
g4
NtRp2488
(lp2489
F40
aF0
absg37
F40
sg38
(lp2490
sg25
(lp2491
sg41
g2491
sbasbasg30
F100
sg24
F24.094481999999999
sg103
g104
sg105
I01
sbsS'E'
g2
(g3
g4
NtRp2492
(dp2493
g7
F450
sg8
F104.09448
sg9
(lp2494
g2
(g11
g4
NtRp2495
(dp2496
g14
Nsg15
(lp2497
sg17
I00
sg18
g2
(g19
g4
NtRp2498
(lp2499
F-50
aF0
absg22
g23
sg24
F24.094481999999999
sg8
F24.094481999999999
sg25
(lp2500
sg27
g2
(g19
g4
NtRp2501
(lp2502
F400
aF24.094481999999999
absg30
F400
sg7
F450
sg31
g2
(g19
g4
NtRp2503
(lp2504
F450
aF24.094481999999999
absg34
(lp2505
sg36
I1
sg37
F50
sg38
(lp2506
sg40
F450.64458730006766
sg41
(lp2507
g2
(g43
g4
NtRp2508
(dp2509
g27
g2
(g19
g4
NtRp2510
(lp2511
F400
aF24.094481999999999
absg31
g2
(g19
g4
NtRp2512
(lp2513
F450
aF24.094481999999999
absg14
Nsg34
(lp2514
sg15
g2514
sg18
g2
(g19
g4
NtRp2515
(lp2516
F-50
aF0
absg37
F50
sg38
(lp2517
sg25
(lp2518
sg41
g2518
sbasbag2
(g11
g4
NtRp2519
(dp2520
g14
Nsg15
(lp2521
sg17
I00
sg18
g2
(g19
g4
NtRp2522
(lp2523
F0
aF79.999998000000005
absg22
g23
sg24
F24.094481999999999
sg8
F104.09448
sg25
(lp2524
sg27
g2
(g19
g4
NtRp2525
(lp2526
F400
aF104.09448
absg30
F400
sg7
F400
sg31
g2
(g19
g4
NtRp2527
(lp2528
F400
aF24.094481999999999
absg34
(lp2529
sg36
I1
sg37
F79.999998000000005
sg38
(lp2530
sg40
F413.32270777985377
sg41
(lp2531
g2
(g43
g4
NtRp2532
(dp2533
g27
g2
(g19
g4
NtRp2534
(lp2535
F400
aF104.09448
absg31
g2
(g19
g4
NtRp2536
(lp2537
F400
aF24.094481999999999
absg14
Nsg34
(lp2538
sg15
g2538
sg18
g2
(g19
g4
NtRp2539
(lp2540
F0
aF79.999998000000005
absg37
F79.999998000000005
sg38
(lp2541
sg25
(lp2542
sg41
g2542
sbasbag2
(g11
g4
NtRp2543
(dp2544
g14
Nsg15
(lp2545
sg17
I00
sg18
g2
(g19
g4
NtRp2546
(lp2547
F50
aF0
absg22
g23
sg24
F104.09448
sg8
F104.09448
sg25
(lp2548
sg27
g2
(g19
g4
NtRp2549
(lp2550
F450
aF104.09448
absg30
F400
sg7
F450
sg31
g2
(g19
g4
NtRp2551
(lp2552
F400
aF104.09448
absg34
(lp2553
sg36
I1
sg37
F50
sg38
(lp2554
sg40
F461.88273486510661
sg41
(lp2555
g2
(g43
g4
NtRp2556
(dp2557
g27
g2
(g19
g4
NtRp2558
(lp2559
F450
aF104.09448
absg31
g2
(g19
g4
NtRp2560
(lp2561
F400
aF104.09448
absg14
Nsg34
(lp2562
sg15
g2562
sg18
g2
(g19
g4
NtRp2563
(lp2564
F50
aF0
absg37
F50
sg38
(lp2565
sg25
(lp2566
sg41
g2566
sbasbag2
(g11
g4
NtRp2567
(dp2568
g14
Nsg15
(lp2569
sg17
I00
sg18
g2
(g19
g4
NtRp2570
(lp2571
F0
aF0
absg22
g23
sg24
F104.09448
sg8
F104.09448
sg25
(lp2572
sg27
g2
(g19
g4
NtRp2573
(lp2574
F450
aF104.09448
absg30
F450
sg7
F450
sg31
g2
(g19
g4
NtRp2575
(lp2576
F450
aF104.09448
absg34
(lp2577
sg36
I1
sg37
F0
sg38
(lp2578
sg40
F461.88273486510661
sg41
(lp2579
g2
(g43
g4
NtRp2580
(dp2581
g27
g2
(g19
g4
NtRp2582
(lp2583
F450
aF104.09448
absg31
g2
(g19
g4
NtRp2584
(lp2585
F450
aF104.09448
absg14
Nsg34
(lp2586
sg15
g2586
sg18
g2
(g19
g4
NtRp2587
(lp2588
F0
aF0
absg37
F0
sg38
(lp2589
sg25
(lp2590
sg41
g2590
sbasbag2
(g11
g4
NtRp2591
(dp2592
g14
Nsg15
(lp2593
sg17
I00
sg18
g2
(g19
g4
NtRp2594
(lp2595
F0
aF0
absg22
g23
sg24
F104.09448
sg8
F104.09448
sg25
(lp2596
sg27
g2
(g19
g4
NtRp2597
(lp2598
F450
aF104.09448
absg30
F450
sg7
F450
sg31
g2
(g19
g4
NtRp2599
(lp2600
F450
aF104.09448
absg34
(lp2601
sg36
I1
sg37
F0
sg38
(lp2602
sg40
F461.88273486510661
sg41
(lp2603
g2
(g43
g4
NtRp2604
(dp2605
g27
g2
(g19
g4
NtRp2606
(lp2607
F450
aF104.09448
absg31
g2
(g19
g4
NtRp2608
(lp2609
F450
aF104.09448
absg14
Nsg34
(lp2610
sg15
g2610
sg18
g2
(g19
g4
NtRp2611
(lp2612
F0
aF0
absg37
F0
sg38
(lp2613
sg25
(lp2614
sg41
g2614
sbasbag2
(g11
g4
NtRp2615
(dp2616
g14
Nsg15
(lp2617
sg17
I00
sg18
g2
(g19
g4
NtRp2618
(lp2619
F0
aF0
absg22
g23
sg24
F104.09448
sg8
F104.09448
sg25
(lp2620
sg27
g2
(g19
g4
NtRp2621
(lp2622
F450
aF104.09448
absg30
F450
sg7
F450
sg31
g2
(g19
g4
NtRp2623
(lp2624
F450
aF104.09448
absg34
(lp2625
sg36
I1
sg37
F0
sg38
(lp2626
sg40
F461.88273486510661
sg41
(lp2627
g2
(g43
g4
NtRp2628
(dp2629
g27
g2
(g19
g4
NtRp2630
(lp2631
F450
aF104.09448
absg31
g2
(g19
g4
NtRp2632
(lp2633
F450
aF104.09448
absg14
Nsg34
(lp2634
sg15
g2634
sg18
g2
(g19
g4
NtRp2635
(lp2636
F0
aF0
absg37
F0
sg38
(lp2637
sg25
(lp2638
sg41
g2638
sbasbag2
(g11
g4
NtRp2639
(dp2640
g14
Nsg15
(lp2641
sg17
I00
sg18
g2
(g19
g4
NtRp2642
(lp2643
F40
aF0
absg22
g23
sg24
F64.094481999999999
sg8
F64.094481999999999
sg25
(lp2644
sg27
g2
(g19
g4
NtRp2645
(lp2646
F440
aF64.094481999999999
absg30
F400
sg7
F440
sg31
g2
(g19
g4
NtRp2647
(lp2648
F400
aF64.094481999999999
absg34
(lp2649
sg36
I1
sg37
F40
sg38
(lp2650
sg40
F444.64379296561458
sg41
(lp2651
g2
(g43
g4
NtRp2652
(dp2653
g27
g2
(g19
g4
NtRp2654
(lp2655
F440
aF64.094481999999999
absg31
g2
(g19
g4
NtRp2656
(lp2657
F400
aF64.094481999999999
absg14
Nsg34
(lp2658
sg15
g2658
sg18
g2
(g19
g4
NtRp2659
(lp2660
F40
aF0
absg37
F40
sg38
(lp2661
sg25
(lp2662
sg41
g2662
sbasbag2
(g11
g4
NtRp2663
(dp2664
g14
Nsg15
(lp2665
sg17
I00
sg18
g2
(g19
g4
NtRp2666
(lp2667
F0
aF0
absg22
g23
sg24
F64.094481999999999
sg8
F64.094481999999999
sg25
(lp2668
sg27
g2
(g19
g4
NtRp2669
(lp2670
F440
aF64.094481999999999
absg30
F440
sg7
F440
sg31
g2
(g19
g4
NtRp2671
(lp2672
F440
aF64.094481999999999
absg34
(lp2673
sg36
I1
sg37
F0
sg38
(lp2674
sg40
F444.64379296561458
sg41
(lp2675
g2
(g43
g4
NtRp2676
(dp2677
g27
g2
(g19
g4
NtRp2678
(lp2679
F440
aF64.094481999999999
absg31
g2
(g19
g4
NtRp2680
(lp2681
F440
aF64.094481999999999
absg14
Nsg34
(lp2682
sg15
g2682
sg18
g2
(g19
g4
NtRp2683
(lp2684
F0
aF0
absg37
F0
sg38
(lp2685
sg25
(lp2686
sg41
g2686
sbasbasg30
F400
sg24
F24.094481999999999
sg103
g104
sg105
I01
sbsS'D'
g2
(g3
g4
NtRp2687
(dp2688
g7
F350
sg8
F104.09448
sg9
(lp2689
g2
(g11
g4
NtRp2690
(dp2691
g14
Nsg15
(lp2692
sg17
I00
sg18
g2
(g19
g4
NtRp2693
(lp2694
F0
aF79.999998000000005
absg22
g23
sg24
F24.094481999999999
sg8
F104.09448
sg25
(lp2695
sg27
g2
(g19
g4
NtRp2696
(lp2697
F300
aF104.09448
absg30
F300
sg7
F300
sg31
g2
(g19
g4
NtRp2698
(lp2699
F300
aF24.094481999999999
absg34
(lp2700
sg36
I1
sg37
F79.999998000000005
sg38
(lp2701
sg40
F317.54631278991479
sg41
(lp2702
g2
(g43
g4
NtRp2703
(dp2704
g27
g2
(g19
g4
NtRp2705
(lp2706
F300
aF104.09448
absg31
g2
(g19
g4
NtRp2707
(lp2708
F300
aF24.094481999999999
absg14
Nsg34
(lp2709
sg15
g2709
sg18
g2
(g19
g4
NtRp2710
(lp2711
F0
aF79.999998000000005
absg37
F79.999998000000005
sg38
(lp2712
sg25
(lp2713
sg41
g2713
sbasbag2
(g11
g4
NtRp2714
(dp2715
g14
Nsg15
(lp2716
sg17
I00
sg18
g2
(g19
g4
NtRp2717
(lp2718
F40
aF0
absg22
g23
sg24
F104.09448
sg8
F104.09448
sg25
(lp2719
sg27
g2
(g19
g4
NtRp2720
(lp2721
F340
aF104.09448
absg30
F300
sg7
F340
sg31
g2
(g19
g4
NtRp2722
(lp2723
F300
aF104.09448
absg34
(lp2724
sg36
I1
sg37
F40
sg38
(lp2725
sg40
F355.57792502694878
sg41
(lp2726
g2
(g43
g4
NtRp2727
(dp2728
g27
g2
(g19
g4
NtRp2729
(lp2730
F340
aF104.09448
absg31
g2
(g19
g4
NtRp2731
(lp2732
F300
aF104.09448
absg14
Nsg34
(lp2733
sg15
g2733
sg18
g2
(g19
g4
NtRp2734
(lp2735
F40
aF0
absg37
F40
sg38
(lp2736
sg25
(lp2737
sg41
g2737
sbasbag2
(g11
g4
NtRp2738
(dp2739
g14
Nsg15
(lp2740
sg17
I00
sg18
g2
(g19
g4
NtRp2741
(lp2742
F10
aF-9.999998000000005
absg22
g23
sg24
F94.094481999999999
sg8
F104.09448
sg25
(lp2743
sg27
g2
(g19
g4
NtRp2744
(lp2745
F350
aF94.094481999999999
absg30
F340
sg7
F350
sg31
g2
(g19
g4
NtRp2746
(lp2747
F340
aF104.09448
absg34
(lp2748
sg36
I1
sg37
F14.142134209517462
sg38
(lp2749
sg40
F362.42760869289236
sg41
(lp2750
g2
(g43
g4
NtRp2751
(dp2752
g27
g2
(g19
g4
NtRp2753
(lp2754
F350
aF94.094481999999999
absg31
g2
(g19
g4
NtRp2755
(lp2756
F340
aF104.09448
absg14
Nsg34
(lp2757
sg15
g2757
sg18
g2
(g19
g4
NtRp2758
(lp2759
F10
aF-9.999998000000005
absg37
F14.142134209517462
sg38
(lp2760
sg25
(lp2761
sg41
g2761
sbasbag2
(g11
g4
NtRp2762
(dp2763
g14
Nsg15
(lp2764
sg17
I00
sg18
g2
(g19
g4
NtRp2765
(lp2766
F0
aF-60
absg22
g23
sg24
F34.094481999999999
sg8
F94.094481999999999
sg25
(lp2767
sg27
g2
(g19
g4
NtRp2768
(lp2769
F350
aF34.094481999999999
absg30
F350
sg7
F350
sg31
g2
(g19
g4
NtRp2770
(lp2771
F350
aF94.094481999999999
absg34
(lp2772
sg36
I1
sg37
F60
sg38
(lp2773
sg40
F362.42760869289236
sg41
(lp2774
g2
(g43
g4
NtRp2775
(dp2776
g27
g2
(g19
g4
NtRp2777
(lp2778
F350
aF34.094481999999999
absg31
g2
(g19
g4
NtRp2779
(lp2780
F350
aF94.094481999999999
absg14
Nsg34
(lp2781
sg15
g2781
sg18
g2
(g19
g4
NtRp2782
(lp2783
F0
aF-60
absg37
F60
sg38
(lp2784
sg25
(lp2785
sg41
g2785
sbasbag2
(g11
g4
NtRp2786
(dp2787
g14
Nsg15
(lp2788
sg17
I00
sg18
g2
(g19
g4
NtRp2789
(lp2790
F-10
aF-10
absg22
g23
sg24
F24.094481999999999
sg8
F34.094481999999999
sg25
(lp2791
sg27
g2
(g19
g4
NtRp2792
(lp2793
F340
aF24.094481999999999
absg30
F340
sg7
F350
sg31
g2
(g19
g4
NtRp2794
(lp2795
F350
aF34.094481999999999
absg34
(lp2796
sg36
I1
sg37
F14.142135623730951
sg38
(lp2797
sg40
F351.65669864634788
sg41
(lp2798
g2
(g43
g4
NtRp2799
(dp2800
g27
g2
(g19
g4
NtRp2801
(lp2802
F340
aF24.094481999999999
absg31
g2
(g19
g4
NtRp2803
(lp2804
F350
aF34.094481999999999
absg14
Nsg34
(lp2805
sg15
g2805
sg18
g2
(g19
g4
NtRp2806
(lp2807
F-10
aF-10
absg37
F14.142135623730951
sg38
(lp2808
sg25
(lp2809
sg41
g2809
sbasbag2
(g11
g4
NtRp2810
(dp2811
g14
Nsg15
(lp2812
sg17
I00
sg18
g2
(g19
g4
NtRp2813
(lp2814
F-40
aF0
absg22
g23
sg24
F24.094481999999999
sg8
F24.094481999999999
sg25
(lp2815
sg27
g2
(g19
g4
NtRp2816
(lp2817
F300
aF24.094481999999999
absg30
F300
sg7
F340
sg31
g2
(g19
g4
NtRp2818
(lp2819
F340
aF24.094481999999999
absg34
(lp2820
sg36
I1
sg37
F40
sg38
(lp2821
sg40
F340.85267207819908
sg41
(lp2822
g2
(g43
g4
NtRp2823
(dp2824
g27
g2
(g19
g4
NtRp2825
(lp2826
F300
aF24.094481999999999
absg31
g2
(g19
g4
NtRp2827
(lp2828
F340
aF24.094481999999999
absg14
Nsg34
(lp2829
sg15
g2829
sg18
g2
(g19
g4
NtRp2830
(lp2831
F-40
aF0
absg37
F40
sg38
(lp2832
sg25
(lp2833
sg41
g2833
sbasbag2
(g11
g4
NtRp2834
(dp2835
g14
Nsg15
(lp2836
sg17
I00
sg18
g2
(g19
g4
NtRp2837
(lp2838
F0
aF0
absg22
g23
sg24
F24.094481999999999
sg8
F24.094481999999999
sg25
(lp2839
sg27
g2
(g19
g4
NtRp2840
(lp2841
F300
aF24.094481999999999
absg30
F300
sg7
F300
sg31
g2
(g19
g4
NtRp2842
(lp2843
F300
aF24.094481999999999
absg34
(lp2844
sg36
I1
sg37
F0
sg38
(lp2845
sg40
F300.96601811973443
sg41
(lp2846
g2
(g43
g4
NtRp2847
(dp2848
g27
g2
(g19
g4
NtRp2849
(lp2850
F300
aF24.094481999999999
absg31
g2
(g19
g4
NtRp2851
(lp2852
F300
aF24.094481999999999
absg14
Nsg34
(lp2853
sg15
g2853
sg18
g2
(g19
g4
NtRp2854
(lp2855
F0
aF0
absg37
F0
sg38
(lp2856
sg25
(lp2857
sg41
g2857
sbasbasg30
F300
sg24
F24.094481999999999
sg103
g104
sg105
I01
sbsS'G'
g2
(g3
g4
NtRp2858
(dp2859
g7
F650
sg8
F104.09448
sg9
(lp2860
g2
(g11
g4
NtRp2861
(dp2862
g14
Nsg15
(lp2863
sg17
I00
sg18
g2
(g19
g4
NtRp2864
(lp2865
F-10
aF-10
absg22
g23
sg24
F24.094481999999999
sg8
F34.094481999999999
sg25
(lp2866
sg27
g2
(g19
g4
NtRp2867
(lp2868
F640
aF24.094481999999999
absg30
F640
sg7
F650
sg31
g2
(g19
g4
NtRp2869
(lp2870
F650
aF34.094481999999999
absg34
(lp2871
sg36
I1
sg37
F14.142135623730951
sg38
(lp2872
sg40
F650.89356557185931
sg41
(lp2873
g2
(g43
g4
NtRp2874
(dp2875
g27
g2
(g19
g4
NtRp2876
(lp2877
F640
aF24.094481999999999
absg31
g2
(g19
g4
NtRp2878
(lp2879
F650
aF34.094481999999999
absg14
Nsg34
(lp2880
sg15
g2880
sg18
g2
(g19
g4
NtRp2881
(lp2882
F-10
aF-10
absg37
F14.142135623730951
sg38
(lp2883
sg25
(lp2884
sg41
g2884
sbasbag2
(g11
g4
NtRp2885
(dp2886
g14
Nsg15
(lp2887
sg17
I00
sg18
g2
(g19
g4
NtRp2888
(lp2889
F-30
aF0
absg22
g23
sg24
F24.094481999999999
sg8
F24.094481999999999
sg25
(lp2890
sg27
g2
(g19
g4
NtRp2891
(lp2892
F610
aF24.094481999999999
absg30
F610
sg7
F640
sg31
g2
(g19
g4
NtRp2893
(lp2894
F640
aF24.094481999999999
absg34
(lp2895
sg36
I1
sg37
F30
sg38
(lp2896
sg40
F640.45338945379024
sg41
(lp2897
g2
(g43
g4
NtRp2898
(dp2899
g27
g2
(g19
g4
NtRp2900
(lp2901
F610
aF24.094481999999999
absg31
g2
(g19
g4
NtRp2902
(lp2903
F640
aF24.094481999999999
absg14
Nsg34
(lp2904
sg15
g2904
sg18
g2
(g19
g4
NtRp2905
(lp2906
F-30
aF0
absg37
F30
sg38
(lp2907
sg25
(lp2908
sg41
g2908
sbasbag2
(g11
g4
NtRp2909
(dp2910
g14
Nsg15
(lp2911
sg17
I00
sg18
g2
(g19
g4
NtRp2912
(lp2913
F-10
aF10
absg22
g23
sg24
F24.094481999999999
sg8
F34.094481999999999
sg25
(lp2914
sg27
g2
(g19
g4
NtRp2915
(lp2916
F600
aF34.094481999999999
absg30
F600
sg7
F610
sg31
g2
(g19
g4
NtRp2917
(lp2918
F610
aF24.094481999999999
absg34
(lp2919
sg36
I1
sg37
F14.142135623730951
sg38
(lp2920
sg40
F610.47567032835002
sg41
(lp2921
g2
(g43
g4
NtRp2922
(dp2923
g27
g2
(g19
g4
NtRp2924
(lp2925
F600
aF34.094481999999999
absg31
g2
(g19
g4
NtRp2926
(lp2927
F610
aF24.094481999999999
absg14
Nsg34
(lp2928
sg15
g2928
sg18
g2
(g19
g4
NtRp2929
(lp2930
F-10
aF10
absg37
F14.142135623730951
sg38
(lp2931
sg25
(lp2932
sg41
g2932
sbasbag2
(g11
g4
NtRp2933
(dp2934
g14
Nsg15
(lp2935
sg17
I00
sg18
g2
(g19
g4
NtRp2936
(lp2937
F0
aF60
absg22
g23
sg24
F34.094481999999999
sg8
F94.094481999999999
sg25
(lp2938
sg27
g2
(g19
g4
NtRp2939
(lp2940
F600
aF94.094481999999999
absg30
F600
sg7
F600
sg31
g2
(g19
g4
NtRp2941
(lp2942
F600
aF34.094481999999999
absg34
(lp2943
sg36
I1
sg37
F60
sg38
(lp2944
sg40
F607.33332820029591
sg41
(lp2945
g2
(g43
g4
NtRp2946
(dp2947
g27
g2
(g19
g4
NtRp2948
(lp2949
F600
aF94.094481999999999
absg31
g2
(g19
g4
NtRp2950
(lp2951
F600
aF34.094481999999999
absg14
Nsg34
(lp2952
sg15
g2952
sg18
g2
(g19
g4
NtRp2953
(lp2954
F0
aF60
absg37
F60
sg38
(lp2955
sg25
(lp2956
sg41
g2956
sbasbag2
(g11
g4
NtRp2957
(dp2958
g14
Nsg15
(lp2959
sg17
I00
sg18
g2
(g19
g4
NtRp2960
(lp2961
F10
aF9.999998000000005
absg22
g23
sg24
F94.094481999999999
sg8
F104.09448
sg25
(lp2962
sg27
g2
(g19
g4
NtRp2963
(lp2964
F610
aF104.09448
absg30
F600
sg7
F610
sg31
g2
(g19
g4
NtRp2965
(lp2966
F600
aF94.094481999999999
absg34
(lp2967
sg36
I1
sg37
F14.142134209517462
sg38
(lp2968
sg40
F618.81795446356466
sg41
(lp2969
g2
(g43
g4
NtRp2970
(dp2971
g27
g2
(g19
g4
NtRp2972
(lp2973
F610
aF104.09448
absg31
g2
(g19
g4
NtRp2974
(lp2975
F600
aF94.094481999999999
absg14
Nsg34
(lp2976
sg15
g2976
sg18
g2
(g19
g4
NtRp2977
(lp2978
F10
aF9.999998000000005
absg37
F14.142134209517462
sg38
(lp2979
sg25
(lp2980
sg41
g2980
sbasbag2
(g11
g4
NtRp2981
(dp2982
g14
Nsg15
(lp2983
sg17
I00
sg18
g2
(g19
g4
NtRp2984
(lp2985
F30
aF0
absg22
g23
sg24
F104.09448
sg8
F104.09448
sg25
(lp2986
sg27
g2
(g19
g4
NtRp2987
(lp2988
F640
aF104.09448
absg30
F610
sg7
F640
sg31
g2
(g19
g4
NtRp2989
(lp2990
F610
aF104.09448
absg34
(lp2991
sg36
I1
sg37
F30
sg38
(lp2992
sg40
F648.41010230136794
sg41
(lp2993
g2
(g43
g4
NtRp2994
(dp2995
g27
g2
(g19
g4
NtRp2996
(lp2997
F640
aF104.09448
absg31
g2
(g19
g4
NtRp2998
(lp2999
F610
aF104.09448
absg14
Nsg34
(lp3000
sg15
g3000
sg18
g2
(g19
g4
NtRp3001
(lp3002
F30
aF0
absg37
F30
sg38
(lp3003
sg25
(lp3004
sg41
g3004
sbasbag2
(g11
g4
NtRp3005
(dp3006
g14
Nsg15
(lp3007
sg17
I00
sg18
g2
(g19
g4
NtRp3008
(lp3009
F10
aF-9.999998000000005
absg22
g23
sg24
F94.094481999999999
sg8
F104.09448
sg25
(lp3010
sg27
g2
(g19
g4
NtRp3011
(lp3012
F650
aF94.094481999999999
absg30
F640
sg7
F650
sg31
g2
(g19
g4
NtRp3013
(lp3014
F640
aF104.09448
absg34
(lp3015
sg36
I1
sg37
F14.142134209517462
sg38
(lp3016
sg40
F656.77528237811168
sg41
(lp3017
g2
(g43
g4
NtRp3018
(dp3019
g27
g2
(g19
g4
NtRp3020
(lp3021
F650
aF94.094481999999999
absg31
g2
(g19
g4
NtRp3022
(lp3023
F640
aF104.09448
absg14
Nsg34
(lp3024
sg15
g3024
sg18
g2
(g19
g4
NtRp3025
(lp3026
F10
aF-9.999998000000005
absg37
F14.142134209517462
sg38
(lp3027
sg25
(lp3028
sg41
g3028
sbasbag2
(g11
g4
NtRp3029
(dp3030
g14
Nsg15
(lp3031
sg17
I00
sg18
g2
(g19
g4
NtRp3032
(lp3033
F0
aF-30
absg22
g23
sg24
F64.094481999999999
sg8
F94.094481999999999
sg25
(lp3034
sg27
g2
(g19
g4
NtRp3035
(lp3036
F650
aF64.094481999999999
absg30
F650
sg7
F650
sg31
g2
(g19
g4
NtRp3037
(lp3038
F650
aF94.094481999999999
absg34
(lp3039
sg36
I1
sg37
F30
sg38
(lp3040
sg40
F656.77528237811168
sg41
(lp3041
g2
(g43
g4
NtRp3042
(dp3043
g27
g2
(g19
g4
NtRp3044
(lp3045
F650
aF64.094481999999999
absg31
g2
(g19
g4
NtRp3046
(lp3047
F650
aF94.094481999999999
absg14
Nsg34
(lp3048
sg15
g3048
sg18
g2
(g19
g4
NtRp3049
(lp3050
F0
aF-30
absg37
F30
sg38
(lp3051
sg25
(lp3052
sg41
g3052
sbasbag2
(g11
g4
NtRp3053
(dp3054
g14
Nsg15
(lp3055
sg17
I00
sg18
g2
(g19
g4
NtRp3056
(lp3057
F-30
aF0
absg22
g23
sg24
F64.094481999999999
sg8
F64.094481999999999
sg25
(lp3058
sg27
g2
(g19
g4
NtRp3059
(lp3060
F620
aF64.094481999999999
absg30
F620
sg7
F650
sg31
g2
(g19
g4
NtRp3061
(lp3062
F650
aF64.094481999999999
absg34
(lp3063
sg36
I1
sg37
F30
sg38
(lp3064
sg40
F653.15243444608575
sg41
(lp3065
g2
(g43
g4
NtRp3066
(dp3067
g27
g2
(g19
g4
NtRp3068
(lp3069
F620
aF64.094481999999999
absg31
g2
(g19
g4
NtRp3070
(lp3071
F650
aF64.094481999999999
absg14
Nsg34
(lp3072
sg15
g3072
sg18
g2
(g19
g4
NtRp3073
(lp3074
F-30
aF0
absg37
F30
sg38
(lp3075
sg25
(lp3076
sg41
g3076
sbasbasg30
F600
sg24
F24.094481999999999
sg103
g104
sg105
I01
sbsS'F'
g2
(g3
g4
NtRp3077
(dp3078
g7
F550
sg8
F104.09448
sg9
(lp3079
g2
(g11
g4
NtRp3080
(dp3081
g14
Nsg15
(lp3082
sg17
I00
sg18
g2
(g19
g4
NtRp3083
(lp3084
F-50
aF0
absg22
g23
sg24
F24.094481999999999
sg8
F24.094481999999999
sg25
(lp3085
sg27
g2
(g19
g4
NtRp3086
(lp3087
F500
aF24.094481999999999
absg30
F500
sg7
F550
sg31
g2
(g19
g4
NtRp3088
(lp3089
F550
aF24.094481999999999
absg34
(lp3090
sg36
I1
sg37
F50
sg38
(lp3091
sg40
F550.52751435586606
sg41
(lp3092
g2
(g43
g4
NtRp3093
(dp3094
g27
g2
(g19
g4
NtRp3095
(lp3096
F500
aF24.094481999999999
absg31
g2
(g19
g4
NtRp3097
(lp3098
F550
aF24.094481999999999
absg14
Nsg34
(lp3099
sg15
g3099
sg18
g2
(g19
g4
NtRp3100
(lp3101
F-50
aF0
absg37
F50
sg38
(lp3102
sg25
(lp3103
sg41
g3103
sbasbag2
(g11
g4
NtRp3104
(dp3105
g14
Nsg15
(lp3106
sg17
I00
sg18
g2
(g19
g4
NtRp3107
(lp3108
F0
aF79.999998000000005
absg22
g23
sg24
F24.094481999999999
sg8
F104.09448
sg25
(lp3109
sg27
g2
(g19
g4
NtRp3110
(lp3111
F500
aF104.09448
absg30
F500
sg7
F500
sg31
g2
(g19
g4
NtRp3112
(lp3113
F500
aF24.094481999999999
absg34
(lp3114
sg36
I1
sg37
F79.999998000000005
sg38
(lp3115
sg40
F510.72072678369966
sg41
(lp3116
g2
(g43
g4
NtRp3117
(dp3118
g27
g2
(g19
g4
NtRp3119
(lp3120
F500
aF104.09448
absg31
g2
(g19
g4
NtRp3121
(lp3122
F500
aF24.094481999999999
absg14
Nsg34
(lp3123
sg15
g3123
sg18
g2
(g19
g4
NtRp3124
(lp3125
F0
aF79.999998000000005
absg37
F79.999998000000005
sg38
(lp3126
sg25
(lp3127
sg41
g3127
sbasbag2
(g11
g4
NtRp3128
(dp3129
g14
Nsg15
(lp3130
sg17
I00
sg18
g2
(g19
g4
NtRp3131
(lp3132
F0
aF0
absg22
g23
sg24
F104.09448
sg8
F104.09448
sg25
(lp3133
sg27
g2
(g19
g4
NtRp3134
(lp3135
F500
aF104.09448
absg30
F500
sg7
F500
sg31
g2
(g19
g4
NtRp3136
(lp3137
F500
aF104.09448
absg34
(lp3138
sg36
I1
sg37
F0
sg38
(lp3139
sg40
F510.72072678369966
sg41
(lp3140
g2
(g43
g4
NtRp3141
(dp3142
g27
g2
(g19
g4
NtRp3143
(lp3144
F500
aF104.09448
absg31
g2
(g19
g4
NtRp3145
(lp3146
F500
aF104.09448
absg14
Nsg34
(lp3147
sg15
g3147
sg18
g2
(g19
g4
NtRp3148
(lp3149
F0
aF0
absg37
F0
sg38
(lp3150
sg25
(lp3151
sg41
g3151
sbasbag2
(g11
g4
NtRp3152
(dp3153
g14
Nsg15
(lp3154
sg17
I00
sg18
g2
(g19
g4
NtRp3155
(lp3156
F40
aF0
absg22
g23
sg24
F64.094481999999999
sg8
F64.094481999999999
sg25
(lp3157
sg27
g2
(g19
g4
NtRp3158
(lp3159
F540
aF64.094481999999999
absg30
F500
sg7
F540
sg31
g2
(g19
g4
NtRp3160
(lp3161
F500
aF64.094481999999999
absg34
(lp3162
sg36
I1
sg37
F40
sg38
(lp3163
sg40
F543.79049515677298
sg41
(lp3164
g2
(g43
g4
NtRp3165
(dp3166
g27
g2
(g19
g4
NtRp3167
(lp3168
F540
aF64.094481999999999
absg31
g2
(g19
g4
NtRp3169
(lp3170
F500
aF64.094481999999999
absg14
Nsg34
(lp3171
sg15
g3171
sg18
g2
(g19
g4
NtRp3172
(lp3173
F40
aF0
absg37
F40
sg38
(lp3174
sg25
(lp3175
sg41
g3175
sbasbasg30
F500
sg24
F24.094481999999999
sg103
g104
sg105
I01
sbsS'I'
g2
(g3
g4
NtRp3176
(dp3177
g7
F850
sg8
F104.09448
sg9
(lp3178
g2
(g11
g4
NtRp3179
(dp3180
g14
Nsg15
(lp3181
sg17
I00
sg18
g2
(g19
g4
NtRp3182
(lp3183
F50
aF0
absg22
g23
sg24
F24.094481999999999
sg8
F24.094481999999999
sg25
(lp3184
sg27
g2
(g19
g4
NtRp3185
(lp3186
F850
aF24.094481999999999
absg30
F800
sg7
F850
sg31
g2
(g19
g4
NtRp3187
(lp3188
F800
aF24.094481999999999
absg34
(lp3189
sg36
I1
sg37
F50
sg38
(lp3190
sg40
F850.34142793518436
sg41
(lp3191
g2
(g43
g4
NtRp3192
(dp3193
g27
g2
(g19
g4
NtRp3194
(lp3195
F850
aF24.094481999999999
absg31
g2
(g19
g4
NtRp3196
(lp3197
F800
aF24.094481999999999
absg14
Nsg34
(lp3198
sg15
g3198
sg18
g2
(g19
g4
NtRp3199
(lp3200
F50
aF0
absg37
F50
sg38
(lp3201
sg25
(lp3202
sg41
g3202
sbasbag2
(g11
g4
NtRp3203
(dp3204
g14
Nsg15
(lp3205
sg17
I00
sg18
g2
(g19
g4
NtRp3206
(lp3207
F50
aF0
absg22
g23
sg24
F104.09448
sg8
F104.09448
sg25
(lp3208
sg27
g2
(g19
g4
NtRp3209
(lp3210
F850
aF104.09448
absg30
F800
sg7
F850
sg31
g2
(g19
g4
NtRp3211
(lp3212
F800
aF104.09448
absg34
(lp3213
sg36
I1
sg37
F50
sg38
(lp3214
sg40
F856.35019750477693
sg41
(lp3215
g2
(g43
g4
NtRp3216
(dp3217
g27
g2
(g19
g4
NtRp3218
(lp3219
F850
aF104.09448
absg31
g2
(g19
g4
NtRp3220
(lp3221
F800
aF104.09448
absg14
Nsg34
(lp3222
sg15
g3222
sg18
g2
(g19
g4
NtRp3223
(lp3224
F50
aF0
absg37
F50
sg38
(lp3225
sg25
(lp3226
sg41
g3226
sbasbag2
(g11
g4
NtRp3227
(dp3228
g14
Nsg15
(lp3229
sg17
I00
sg18
g2
(g19
g4
NtRp3230
(lp3231
F0
aF-79.999998000000005
absg22
g23
sg24
F24.094481999999999
sg8
F104.09448
sg25
(lp3232
sg27
g2
(g19
g4
NtRp3233
(lp3234
F825
aF24.094481999999999
absg30
F825
sg7
F825
sg31
g2
(g19
g4
NtRp3235
(lp3236
F825
aF104.09448
absg34
(lp3237
sg36
I1
sg37
F79.999998000000005
sg38
(lp3238
sg40
F831.54113594365879
sg41
(lp3239
g2
(g43
g4
NtRp3240
(dp3241
g27
g2
(g19
g4
NtRp3242
(lp3243
F825
aF24.094481999999999
absg31
g2
(g19
g4
NtRp3244
(lp3245
F825
aF104.09448
absg14
Nsg34
(lp3246
sg15
g3246
sg18
g2
(g19
g4
NtRp3247
(lp3248
F0
aF-79.999998000000005
absg37
F79.999998000000005
sg38
(lp3249
sg25
(lp3250
sg41
g3250
sbasbasg30
F800
sg24
F24.094481999999999
sg103
g104
sg105
I01
sbsS'H'
g2
(g3
g4
NtRp3251
(dp3252
g7
F750
sg8
F104.09448
sg9
(lp3253
g2
(g11
g4
NtRp3254
(dp3255
g14
Nsg15
(lp3256
sg17
I00
sg18
g2
(g19
g4
NtRp3257
(lp3258
F0
aF79.999998000000005
absg22
g23
sg24
F24.094481999999999
sg8
F104.09448
sg25
(lp3259
sg27
g2
(g19
g4
NtRp3260
(lp3261
F700
aF104.09448
absg30
F700
sg7
F700
sg31
g2
(g19
g4
NtRp3262
(lp3263
F700
aF24.094481999999999
absg34
(lp3264
sg36
I1
sg37
F79.999998000000005
sg38
(lp3265
sg40
F707.69743589084055
sg41
(lp3266
g2
(g43
g4
NtRp3267
(dp3268
g27
g2
(g19
g4
NtRp3269
(lp3270
F700
aF104.09448
absg31
g2
(g19
g4
NtRp3271
(lp3272
F700
aF24.094481999999999
absg14
Nsg34
(lp3273
sg15
g3273
sg18
g2
(g19
g4
NtRp3274
(lp3275
F0
aF79.999998000000005
absg37
F79.999998000000005
sg38
(lp3276
sg25
(lp3277
sg41
g3277
sbasbag2
(g11
g4
NtRp3278
(dp3279
g14
Nsg15
(lp3280
sg17
I00
sg18
g2
(g19
g4
NtRp3281
(lp3282
F0
aF79.999998000000005
absg22
g23
sg24
F24.094481999999999
sg8
F104.09448
sg25
(lp3283
sg27
g2
(g19
g4
NtRp3284
(lp3285
F750
aF104.09448
absg30
F750
sg7
F750
sg31
g2
(g19
g4
NtRp3286
(lp3287
F750
aF24.094481999999999
absg34
(lp3288
sg36
I1
sg37
F79.999998000000005
sg38
(lp3289
sg40
F757.18931633143791
sg41
(lp3290
g2
(g43
g4
NtRp3291
(dp3292
g27
g2
(g19
g4
NtRp3293
(lp3294
F750
aF104.09448
absg31
g2
(g19
g4
NtRp3295
(lp3296
F750
aF24.094481999999999
absg14
Nsg34
(lp3297
sg15
g3297
sg18
g2
(g19
g4
NtRp3298
(lp3299
F0
aF79.999998000000005
absg37
F79.999998000000005
sg38
(lp3300
sg25
(lp3301
sg41
g3301
sbasbag2
(g11
g4
NtRp3302
(dp3303
g14
Nsg15
(lp3304
sg17
I00
sg18
g2
(g19
g4
NtRp3305
(lp3306
F50
aF0
absg22
g23
sg24
F64.094481999999999
sg8
F64.094481999999999
sg25
(lp3307
sg27
g2
(g19
g4
NtRp3308
(lp3309
F750
aF64.094481999999999
absg30
F700
sg7
F750
sg31
g2
(g19
g4
NtRp3310
(lp3311
F700
aF64.094481999999999
absg34
(lp3312
sg36
I1
sg37
F50
sg38
(lp3313
sg40
F752.73375281227311
sg41
(lp3314
g2
(g43
g4
NtRp3315
(dp3316
g27
g2
(g19
g4
NtRp3317
(lp3318
F750
aF64.094481999999999
absg31
g2
(g19
g4
NtRp3319
(lp3320
F700
aF64.094481999999999
absg14
Nsg34
(lp3321
sg15
g3321
sg18
g2
(g19
g4
NtRp3322
(lp3323
F50
aF0
absg37
F50
sg38
(lp3324
sg25
(lp3325
sg41
g3325
sbasbag2
(g11
g4
NtRp3326
(dp3327
g14
Nsg15
(lp3328
sg17
I00
sg18
g2
(g19
g4
NtRp3329
(lp3330
F0
aF0
absg22
g23
sg24
F64.094481999999999
sg8
F64.094481999999999
sg25
(lp3331
sg27
g2
(g19
g4
NtRp3332
(lp3333
F750
aF64.094481999999999
absg30
F750
sg7
F750
sg31
g2
(g19
g4
NtRp3334
(lp3335
F750
aF64.094481999999999
absg34
(lp3336
sg36
I1
sg37
F0
sg38
(lp3337
sg40
F752.73375281227311
sg41
(lp3338
g2
(g43
g4
NtRp3339
(dp3340
g27
g2
(g19
g4
NtRp3341
(lp3342
F750
aF64.094481999999999
absg31
g2
(g19
g4
NtRp3343
(lp3344
F750
aF64.094481999999999
absg14
Nsg34
(lp3345
sg15
g3345
sg18
g2
(g19
g4
NtRp3346
(lp3347
F0
aF0
absg37
F0
sg38
(lp3348
sg25
(lp3349
sg41
g3349
sbasbasg30
F700
sg24
F24.094481999999999
sg103
g104
sg105
I01
sbsS'K'
g2
(g3
g4
NtRp3350
(dp3351
g7
F50
sg8
F194.09448
sg9
(lp3352
g2
(g11
g4
NtRp3353
(dp3354
g14
Nsg15
(lp3355
sg17
I00
sg18
g2
(g19
g4
NtRp3356
(lp3357
F0
aF-80
absg22
g23
sg24
F114.09448
sg8
F194.09448
sg25
(lp3358
sg27
g2
(g19
g4
NtRp3359
(lp3360
F0
aF114.09448
absg30
F0
sg7
F0
sg31
g2
(g19
g4
NtRp3361
(lp3362
F0
aF194.09448
absg34
(lp3363
sg36
I1
sg37
F80
sg38
(lp3364
sg40
F194.09448
sg41
(lp3365
g2
(g43
g4
NtRp3366
(dp3367
g27
g2
(g19
g4
NtRp3368
(lp3369
F0
aF114.09448
absg31
g2
(g19
g4
NtRp3370
(lp3371
F0
aF194.09448
absg14
Nsg34
(lp3372
sg15
g3372
sg18
g2
(g19
g4
NtRp3373
(lp3374
F0
aF-80
absg37
F80
sg38
(lp3375
sg25
(lp3376
sg41
g3376
sbasbag2
(g11
g4
NtRp3377
(dp3378
g14
Nsg15
(lp3379
sg17
I00
sg18
g2
(g19
g4
NtRp3380
(lp3381
F0
aF0
absg22
g23
sg24
F114.09448
sg8
F114.09448
sg25
(lp3382
sg27
g2
(g19
g4
NtRp3383
(lp3384
F0
aF114.09448
absg30
F0
sg7
F0
sg31
g2
(g19
g4
NtRp3385
(lp3386
F0
aF114.09448
absg34
(lp3387
sg36
I1
sg37
F0
sg38
(lp3388
sg40
F114.09448
sg41
(lp3389
g2
(g43
g4
NtRp3390
(dp3391
g27
g2
(g19
g4
NtRp3392
(lp3393
F0
aF114.09448
absg31
g2
(g19
g4
NtRp3394
(lp3395
F0
aF114.09448
absg14
Nsg34
(lp3396
sg15
g3396
sg18
g2
(g19
g4
NtRp3397
(lp3398
F0
aF0
absg37
F0
sg38
(lp3399
sg25
(lp3400
sg41
g3400
sbasbag2
(g11
g4
NtRp3401
(dp3402
g14
Nsg15
(lp3403
sg17
I00
sg18
g2
(g19
g4
NtRp3404
(lp3405
F-50
aF40
absg22
g23
sg24
F114.09448
sg8
F154.09448
sg25
(lp3406
sg27
g2
(g19
g4
NtRp3407
(lp3408
F0
aF154.09448
absg30
F0
sg7
F50
sg31
g2
(g19
g4
NtRp3409
(lp3410
F50
aF114.09448
absg34
(lp3411
sg36
I1
sg37
F64.031242374328485
sg38
(lp3412
sg40
F154.09448
sg41
(lp3413
g2
(g43
g4
NtRp3414
(dp3415
g27
g2
(g19
g4
NtRp3416
(lp3417
F0
aF154.09448
absg31
g2
(g19
g4
NtRp3418
(lp3419
F50
aF114.09448
absg14
Nsg34
(lp3420
sg15
g3420
sg18
g2
(g19
g4
NtRp3421
(lp3422
F-50
aF40
absg37
F64.031242374328485
sg38
(lp3423
sg25
(lp3424
sg41
g3424
sbasbag2
(g11
g4
NtRp3425
(dp3426
g14
Nsg15
(lp3427
sg17
I00
sg18
g2
(g19
g4
NtRp3428
(lp3429
F50
aF40
absg22
g23
sg24
F154.09448
sg8
F194.09448
sg25
(lp3430
sg27
g2
(g19
g4
NtRp3431
(lp3432
F50
aF194.09448
absg30
F0
sg7
F50
sg31
g2
(g19
g4
NtRp3433
(lp3434
F0
aF154.09448
absg34
(lp3435
sg36
I1
sg37
F64.031242374328485
sg38
(lp3436
sg40
F200.43120307594424
sg41
(lp3437
g2
(g43
g4
NtRp3438
(dp3439
g27
g2
(g19
g4
NtRp3440
(lp3441
F50
aF194.09448
absg31
g2
(g19
g4
NtRp3442
(lp3443
F0
aF154.09448
absg14
Nsg34
(lp3444
sg15
g3444
sg18
g2
(g19
g4
NtRp3445
(lp3446
F50
aF40
absg37
F64.031242374328485
sg38
(lp3447
sg25
(lp3448
sg41
g3448
sbasbag2
(g11
g4
NtRp3449
(dp3450
g14
Nsg15
(lp3451
sg17
I00
sg18
g2
(g19
g4
NtRp3452
(lp3453
F0
aF0
absg22
g23
sg24
F194.09448
sg8
F194.09448
sg25
(lp3454
sg27
g2
(g19
g4
NtRp3455
(lp3456
F50
aF194.09448
absg30
F50
sg7
F50
sg31
g2
(g19
g4
NtRp3457
(lp3458
F50
aF194.09448
absg34
(lp3459
sg36
I1
sg37
F0
sg38
(lp3460
sg40
F200.43120307594424
sg41
(lp3461
g2
(g43
g4
NtRp3462
(dp3463
g27
g2
(g19
g4
NtRp3464
(lp3465
F50
aF194.09448
absg31
g2
(g19
g4
NtRp3466
(lp3467
F50
aF194.09448
absg14
Nsg34
(lp3468
sg15
g3468
sg18
g2
(g19
g4
NtRp3469
(lp3470
F0
aF0
absg37
F0
sg38
(lp3471
sg25
(lp3472
sg41
g3472
sbasbasg30
F0
sg24
F114.09448
sg103
g104
sg105
I01
sbsS'J'
g2
(g3
g4
NtRp3473
(dp3474
g7
F950
sg8
F104.09448
sg9
(lp3475
g2
(g11
g4
NtRp3476
(dp3477
g14
Nsg15
(lp3478
sg17
I00
sg18
g2
(g19
g4
NtRp3479
(lp3480
F0
aF70
absg22
g23
sg24
F24.094481999999999
sg8
F94.094481999999999
sg25
(lp3481
sg27
g2
(g19
g4
NtRp3482
(lp3483
F950
aF94.094481999999999
absg30
F950
sg7
F950
sg31
g2
(g19
g4
NtRp3484
(lp3485
F950
aF24.094481999999999
absg34
(lp3486
sg36
I1
sg37
F70
sg38
(lp3487
sg40
F954.64850680386462
sg41
(lp3488
g2
(g43
g4
NtRp3489
(dp3490
g27
g2
(g19
g4
NtRp3491
(lp3492
F950
aF94.094481999999999
absg31
g2
(g19
g4
NtRp3493
(lp3494
F950
aF24.094481999999999
absg14
Nsg34
(lp3495
sg15
g3495
sg18
g2
(g19
g4
NtRp3496
(lp3497
F0
aF70
absg37
F70
sg38
(lp3498
sg25
(lp3499
sg41
g3499
sbasbag2
(g11
g4
NtRp3500
(dp3501
g14
Nsg15
(lp3502
sg17
I00
sg18
g2
(g19
g4
NtRp3503
(lp3504
F-10
aF9.999998000000005
absg22
g23
sg24
F94.094481999999999
sg8
F104.09448
sg25
(lp3505
sg27
g2
(g19
g4
NtRp3506
(lp3507
F940
aF104.09448
absg30
F940
sg7
F950
sg31
g2
(g19
g4
NtRp3508
(lp3509
F950
aF94.094481999999999
absg34
(lp3510
sg36
I1
sg37
F14.142134209517462
sg38
(lp3511
sg40
F954.64850680386462
sg41
(lp3512
g2
(g43
g4
NtRp3513
(dp3514
g27
g2
(g19
g4
NtRp3515
(lp3516
F940
aF104.09448
absg31
g2
(g19
g4
NtRp3517
(lp3518
F950
aF94.094481999999999
absg14
Nsg34
(lp3519
sg15
g3519
sg18
g2
(g19
g4
NtRp3520
(lp3521
F-10
aF9.999998000000005
absg37
F14.142134209517462
sg38
(lp3522
sg25
(lp3523
sg41
g3523
sbasbag2
(g11
g4
NtRp3524
(dp3525
g14
Nsg15
(lp3526
sg17
I00
sg18
g2
(g19
g4
NtRp3527
(lp3528
F-30
aF0
absg22
g23
sg24
F104.09448
sg8
F104.09448
sg25
(lp3529
sg27
g2
(g19
g4
NtRp3530
(lp3531
F910
aF104.09448
absg30
F910
sg7
F940
sg31
g2
(g19
g4
NtRp3532
(lp3533
F940
aF104.09448
absg34
(lp3534
sg36
I1
sg37
F30
sg38
(lp3535
sg40
F945.74608683645647
sg41
(lp3536
g2
(g43
g4
NtRp3537
(dp3538
g27
g2
(g19
g4
NtRp3539
(lp3540
F910
aF104.09448
absg31
g2
(g19
g4
NtRp3541
(lp3542
F940
aF104.09448
absg14
Nsg34
(lp3543
sg15
g3543
sg18
g2
(g19
g4
NtRp3544
(lp3545
F-30
aF0
absg37
F30
sg38
(lp3546
sg25
(lp3547
sg41
g3547
sbasbag2
(g11
g4
NtRp3548
(dp3549
g14
Nsg15
(lp3550
sg17
I00
sg18
g2
(g19
g4
NtRp3551
(lp3552
F-10
aF-9.999998000000005
absg22
g23
sg24
F94.094481999999999
sg8
F104.09448
sg25
(lp3553
sg27
g2
(g19
g4
NtRp3554
(lp3555
F900
aF94.094481999999999
absg30
F900
sg7
F910
sg31
g2
(g19
g4
NtRp3556
(lp3557
F910
aF104.09448
absg34
(lp3558
sg36
I1
sg37
F14.142134209517462
sg38
(lp3559
sg40
F915.93431029002863
sg41
(lp3560
g2
(g43
g4
NtRp3561
(dp3562
g27
g2
(g19
g4
NtRp3563
(lp3564
F900
aF94.094481999999999
absg31
g2
(g19
g4
NtRp3565
(lp3566
F910
aF104.09448
absg14
Nsg34
(lp3567
sg15
g3567
sg18
g2
(g19
g4
NtRp3568
(lp3569
F-10
aF-9.999998000000005
absg37
F14.142134209517462
sg38
(lp3570
sg25
(lp3571
sg41
g3571
sbasbag2
(g11
g4
NtRp3572
(dp3573
g14
Nsg15
(lp3574
sg17
I00
sg18
g2
(g19
g4
NtRp3575
(lp3576
F0
aF-10
absg22
g23
sg24
F84.094481999999999
sg8
F94.094481999999999
sg25
(lp3577
sg27
g2
(g19
g4
NtRp3578
(lp3579
F900
aF84.094481999999999
absg30
F900
sg7
F900
sg31
g2
(g19
g4
NtRp3580
(lp3581
F900
aF94.094481999999999
absg34
(lp3582
sg36
I1
sg37
F10
sg38
(lp3583
sg40
F904.9053936975115
sg41
(lp3584
g2
(g43
g4
NtRp3585
(dp3586
g27
g2
(g19
g4
NtRp3587
(lp3588
F900
aF84.094481999999999
absg31
g2
(g19
g4
NtRp3589
(lp3590
F900
aF94.094481999999999
absg14
Nsg34
(lp3591
sg15
g3591
sg18
g2
(g19
g4
NtRp3592
(lp3593
F0
aF-10
absg37
F10
sg38
(lp3594
sg25
(lp3595
sg41
g3595
sbasbasg30
F900
sg24
F24.094481999999999
sg103
g104
sg105
I01
sbsS'M'
g2
(g3
g4
NtRp3596
(dp3597
g7
F250
sg8
F194.09448
sg9
(lp3598
g2
(g11
g4
NtRp3599
(dp3600
g14
Nsg15
(lp3601
sg17
I00
sg18
g2
(g19
g4
NtRp3602
(lp3603
F0
aF-80
absg22
g23
sg24
F114.09448
sg8
F194.09448
sg25
(lp3604
sg27
g2
(g19
g4
NtRp3605
(lp3606
F200
aF114.09448
absg30
F200
sg7
F200
sg31
g2
(g19
g4
NtRp3607
(lp3608
F200
aF194.09448
absg34
(lp3609
sg36
I1
sg37
F80
sg38
(lp3610
sg40
F278.69816498583265
sg41
(lp3611
g2
(g43
g4
NtRp3612
(dp3613
g27
g2
(g19
g4
NtRp3614
(lp3615
F200
aF114.09448
absg31
g2
(g19
g4
NtRp3616
(lp3617
F200
aF194.09448
absg14
Nsg34
(lp3618
sg15
g3618
sg18
g2
(g19
g4
NtRp3619
(lp3620
F0
aF-80
absg37
F80
sg38
(lp3621
sg25
(lp3622
sg41
g3622
sbasbag2
(g11
g4
NtRp3623
(dp3624
g14
Nsg15
(lp3625
sg17
I00
sg18
g2
(g19
g4
NtRp3626
(lp3627
F25
aF35
absg22
g23
sg24
F114.09448
sg8
F149.09448
sg25
(lp3628
sg27
g2
(g19
g4
NtRp3629
(lp3630
F225
aF149.09448
absg30
F200
sg7
F225
sg31
g2
(g19
g4
NtRp3631
(lp3632
F200
aF114.09448
absg34
(lp3633
sg36
I1
sg37
F43.011626335213137
sg38
(lp3634
sg40
F269.91510510986672
sg41
(lp3635
g2
(g43
g4
NtRp3636
(dp3637
g27
g2
(g19
g4
NtRp3638
(lp3639
F225
aF149.09448
absg31
g2
(g19
g4
NtRp3640
(lp3641
F200
aF114.09448
absg14
Nsg34
(lp3642
sg15
g3642
sg18
g2
(g19
g4
NtRp3643
(lp3644
F25
aF35
absg37
F43.011626335213137
sg38
(lp3645
sg25
(lp3646
sg41
g3646
sbasbag2
(g11
g4
NtRp3647
(dp3648
g14
Nsg15
(lp3649
sg17
I00
sg18
g2
(g19
g4
NtRp3650
(lp3651
F25
aF-35
absg22
g23
sg24
F114.09448
sg8
F149.09448
sg25
(lp3652
sg27
g2
(g19
g4
NtRp3653
(lp3654
F250
aF114.09448
absg30
F225
sg7
F250
sg31
g2
(g19
g4
NtRp3655
(lp3656
F225
aF149.09448
absg34
(lp3657
sg36
I1
sg37
F43.011626335213137
sg38
(lp3658
sg40
F274.80456758662217
sg41
(lp3659
g2
(g43
g4
NtRp3660
(dp3661
g27
g2
(g19
g4
NtRp3662
(lp3663
F250
aF114.09448
absg31
g2
(g19
g4
NtRp3664
(lp3665
F225
aF149.09448
absg14
Nsg34
(lp3666
sg15
g3666
sg18
g2
(g19
g4
NtRp3667
(lp3668
F25
aF-35
absg37
F43.011626335213137
sg38
(lp3669
sg25
(lp3670
sg41
g3670
sbasbag2
(g11
g4
NtRp3671
(dp3672
g14
Nsg15
(lp3673
sg17
I00
sg18
g2
(g19
g4
NtRp3674
(lp3675
F0
aF80
absg22
g23
sg24
F114.09448
sg8
F194.09448
sg25
(lp3676
sg27
g2
(g19
g4
NtRp3677
(lp3678
F250
aF194.09448
absg30
F250
sg7
F250
sg31
g2
(g19
g4
NtRp3679
(lp3680
F250
aF114.09448
absg34
(lp3681
sg36
I1
sg37
F80
sg38
(lp3682
sg40
F316.50065903007282
sg41
(lp3683
g2
(g43
g4
NtRp3684
(dp3685
g27
g2
(g19
g4
NtRp3686
(lp3687
F250
aF194.09448
absg31
g2
(g19
g4
NtRp3688
(lp3689
F250
aF114.09448
absg14
Nsg34
(lp3690
sg15
g3690
sg18
g2
(g19
g4
NtRp3691
(lp3692
F0
aF80
absg37
F80
sg38
(lp3693
sg25
(lp3694
sg41
g3694
sbasbag2
(g11
g4
NtRp3695
(dp3696
g14
Nsg15
(lp3697
sg17
I00
sg18
g2
(g19
g4
NtRp3698
(lp3699
F0
aF0
absg22
g23
sg24
F194.09448
sg8
F194.09448
sg25
(lp3700
sg27
g2
(g19
g4
NtRp3701
(lp3702
F250
aF194.09448
absg30
F250
sg7
F250
sg31
g2
(g19
g4
NtRp3703
(lp3704
F250
aF194.09448
absg34
(lp3705
sg36
I1
sg37
F0
sg38
(lp3706
sg40
F316.50065903007282
sg41
(lp3707
g2
(g43
g4
NtRp3708
(dp3709
g27
g2
(g19
g4
NtRp3710
(lp3711
F250
aF194.09448
absg31
g2
(g19
g4
NtRp3712
(lp3713
F250
aF194.09448
absg14
Nsg34
(lp3714
sg15
g3714
sg18
g2
(g19
g4
NtRp3715
(lp3716
F0
aF0
absg37
F0
sg38
(lp3717
sg25
(lp3718
sg41
g3718
sbasbasg30
F200
sg24
F114.09448
sg103
g104
sg105
I01
sbsS'L'
g2
(g3
g4
NtRp3719
(dp3720
g7
F150
sg8
F194.09448
sg9
(lp3721
g2
(g11
g4
NtRp3722
(dp3723
g14
Nsg15
(lp3724
sg17
I00
sg18
g2
(g19
g4
NtRp3725
(lp3726
F0
aF80
absg22
g23
sg24
F114.09448
sg8
F194.09448
sg25
(lp3727
sg27
g2
(g19
g4
NtRp3728
(lp3729
F100
aF194.09448
absg30
F100
sg7
F100
sg31
g2
(g19
g4
NtRp3730
(lp3731
F100
aF114.09448
absg34
(lp3732
sg36
I1
sg37
F80
sg38
(lp3733
sg40
F218.34071348804923
sg41
(lp3734
g2
(g43
g4
NtRp3735
(dp3736
g27
g2
(g19
g4
NtRp3737
(lp3738
F100
aF194.09448
absg31
g2
(g19
g4
NtRp3739
(lp3740
F100
aF114.09448
absg14
Nsg34
(lp3741
sg15
g3741
sg18
g2
(g19
g4
NtRp3742
(lp3743
F0
aF80
absg37
F80
sg38
(lp3744
sg25
(lp3745
sg41
g3745
sbasbag2
(g11
g4
NtRp3746
(dp3747
g14
Nsg15
(lp3748
sg17
I00
sg18
g2
(g19
g4
NtRp3749
(lp3750
F50
aF0
absg22
g23
sg24
F194.09448
sg8
F194.09448
sg25
(lp3751
sg27
g2
(g19
g4
NtRp3752
(lp3753
F150
aF194.09448
absg30
F100
sg7
F150
sg31
g2
(g19
g4
NtRp3754
(lp3755
F100
aF194.09448
absg34
(lp3756
sg36
I1
sg37
F50
sg38
(lp3757
sg40
F245.30117644738357
sg41
(lp3758
g2
(g43
g4
NtRp3759
(dp3760
g27
g2
(g19
g4
NtRp3761
(lp3762
F150
aF194.09448
absg31
g2
(g19
g4
NtRp3763
(lp3764
F100
aF194.09448
absg14
Nsg34
(lp3765
sg15
g3765
sg18
g2
(g19
g4
NtRp3766
(lp3767
F50
aF0
absg37
F50
sg38
(lp3768
sg25
(lp3769
sg41
g3769
sbasbag2
(g11
g4
NtRp3770
(dp3771
g14
Nsg15
(lp3772
sg17
I00
sg18
g2
(g19
g4
NtRp3773
(lp3774
F0
aF0
absg22
g23
sg24
F194.09448
sg8
F194.09448
sg25
(lp3775
sg27
g2
(g19
g4
NtRp3776
(lp3777
F150
aF194.09448
absg30
F150
sg7
F150
sg31
g2
(g19
g4
NtRp3778
(lp3779
F150
aF194.09448
absg34
(lp3780
sg36
I1
sg37
F0
sg38
(lp3781
sg40
F245.30117644738357
sg41
(lp3782
g2
(g43
g4
NtRp3783
(dp3784
g27
g2
(g19
g4
NtRp3785
(lp3786
F150
aF194.09448
absg31
g2
(g19
g4
NtRp3787
(lp3788
F150
aF194.09448
absg14
Nsg34
(lp3789
sg15
g3789
sg18
g2
(g19
g4
NtRp3790
(lp3791
F0
aF0
absg37
F0
sg38
(lp3792
sg25
(lp3793
sg41
g3793
sbasbasg30
F100
sg24
F114.09448
sg103
g104
sg105
I01
sbsS'O'
g2
(g3
g4
NtRp3794
(dp3795
g7
F450
sg8
F194.09448
sg9
(lp3796
g2
(g11
g4
NtRp3797
(dp3798
g14
Nsg15
(lp3799
sg17
I00
sg18
g2
(g19
g4
NtRp3800
(lp3801
F40
aF0
absg22
g23
sg24
F114.09448
sg8
F114.09448
sg25
(lp3802
sg27
g2
(g19
g4
NtRp3803
(lp3804
F445
aF114.09448
absg30
F405
sg7
F445
sg31
g2
(g19
g4
NtRp3805
(lp3806
F405
aF114.09448
absg34
(lp3807
sg36
I1
sg37
F40
sg38
(lp3808
sg40
F459.39367688995287
sg41
(lp3809
g2
(g43
g4
NtRp3810
(dp3811
g27
g2
(g19
g4
NtRp3812
(lp3813
F445
aF114.09448
absg31
g2
(g19
g4
NtRp3814
(lp3815
F405
aF114.09448
absg14
Nsg34
(lp3816
sg15
g3816
sg18
g2
(g19
g4
NtRp3817
(lp3818
F40
aF0
absg37
F40
sg38
(lp3819
sg25
(lp3820
sg41
g3820
sbasbag2
(g11
g4
NtRp3821
(dp3822
g14
Nsg15
(lp3823
sg17
I00
sg18
g2
(g19
g4
NtRp3824
(lp3825
F5
aF5
absg22
g23
sg24
F114.09448
sg8
F119.09448
sg25
(lp3826
sg27
g2
(g19
g4
NtRp3827
(lp3828
F450
aF119.09448
absg30
F445
sg7
F450
sg31
g2
(g19
g4
NtRp3829
(lp3830
F445
aF114.09448
absg34
(lp3831
sg36
I1
sg37
F7.0710678118654755
sg38
(lp3832
sg40
F465.49274448316635
sg41
(lp3833
g2
(g43
g4
NtRp3834
(dp3835
g27
g2
(g19
g4
NtRp3836
(lp3837
F450
aF119.09448
absg31
g2
(g19
g4
NtRp3838
(lp3839
F445
aF114.09448
absg14
Nsg34
(lp3840
sg15
g3840
sg18
g2
(g19
g4
NtRp3841
(lp3842
F5
aF5
absg37
F7.0710678118654755
sg38
(lp3843
sg25
(lp3844
sg41
g3844
sbasbag2
(g11
g4
NtRp3845
(dp3846
g14
Nsg15
(lp3847
sg17
I00
sg18
g2
(g19
g4
NtRp3848
(lp3849
F0
aF70
absg22
g23
sg24
F119.09448
sg8
F189.09448
sg25
(lp3850
sg27
g2
(g19
g4
NtRp3851
(lp3852
F450
aF189.09448
absg30
F450
sg7
F450
sg31
g2
(g19
g4
NtRp3853
(lp3854
F450
aF119.09448
absg34
(lp3855
sg36
I1
sg37
F70
sg38
(lp3856
sg40
F488.11548056425175
sg41
(lp3857
g2
(g43
g4
NtRp3858
(dp3859
g27
g2
(g19
g4
NtRp3860
(lp3861
F450
aF189.09448
absg31
g2
(g19
g4
NtRp3862
(lp3863
F450
aF119.09448
absg14
Nsg34
(lp3864
sg15
g3864
sg18
g2
(g19
g4
NtRp3865
(lp3866
F0
aF70
absg37
F70
sg38
(lp3867
sg25
(lp3868
sg41
g3868
sbasbag2
(g11
g4
NtRp3869
(dp3870
g14
Nsg15
(lp3871
sg17
I00
sg18
g2
(g19
g4
NtRp3872
(lp3873
F-5
aF5
absg22
g23
sg24
F189.09448
sg8
F194.09448
sg25
(lp3874
sg27
g2
(g19
g4
NtRp3875
(lp3876
F445
aF194.09448
absg30
F445
sg7
F450
sg31
g2
(g19
g4
NtRp3877
(lp3878
F450
aF189.09448
absg34
(lp3879
sg36
I1
sg37
F7.0710678118654755
sg38
(lp3880
sg40
F488.11548056425175
sg41
(lp3881
g2
(g43
g4
NtRp3882
(dp3883
g27
g2
(g19
g4
NtRp3884
(lp3885
F445
aF194.09448
absg31
g2
(g19
g4
NtRp3886
(lp3887
F450
aF189.09448
absg14
Nsg34
(lp3888
sg15
g3888
sg18
g2
(g19
g4
NtRp3889
(lp3890
F-5
aF5
absg37
F7.0710678118654755
sg38
(lp3891
sg25
(lp3892
sg41
g3892
sbasbag2
(g11
g4
NtRp3893
(dp3894
g14
Nsg15
(lp3895
sg17
I00
sg18
g2
(g19
g4
NtRp3896
(lp3897
F-40
aF0
absg22
g23
sg24
F194.09448
sg8
F194.09448
sg25
(lp3898
sg27
g2
(g19
g4
NtRp3899
(lp3900
F405
aF194.09448
absg30
F405
sg7
F445
sg31
g2
(g19
g4
NtRp3901
(lp3902
F445
aF194.09448
absg34
(lp3903
sg36
I1
sg37
F40
sg38
(lp3904
sg40
F485.48704119314084
sg41
(lp3905
g2
(g43
g4
NtRp3906
(dp3907
g27
g2
(g19
g4
NtRp3908
(lp3909
F405
aF194.09448
absg31
g2
(g19
g4
NtRp3910
(lp3911
F445
aF194.09448
absg14
Nsg34
(lp3912
sg15
g3912
sg18
g2
(g19
g4
NtRp3913
(lp3914
F-40
aF0
absg37
F40
sg38
(lp3915
sg25
(lp3916
sg41
g3916
sbasbag2
(g11
g4
NtRp3917
(dp3918
g14
Nsg15
(lp3919
sg17
I00
sg18
g2
(g19
g4
NtRp3920
(lp3921
F-5
aF-5
absg22
g23
sg24
F189.09448
sg8
F194.09448
sg25
(lp3922
sg27
g2
(g19
g4
NtRp3923
(lp3924
F400
aF189.09448
absg30
F400
sg7
F405
sg31
g2
(g19
g4
NtRp3925
(lp3926
F405
aF194.09448
absg34
(lp3927
sg36
I1
sg37
F7.0710678118654755
sg38
(lp3928
sg40
F449.10763427765329
sg41
(lp3929
g2
(g43
g4
NtRp3930
(dp3931
g27
g2
(g19
g4
NtRp3932
(lp3933
F400
aF189.09448
absg31
g2
(g19
g4
NtRp3934
(lp3935
F405
aF194.09448
absg14
Nsg34
(lp3936
sg15
g3936
sg18
g2
(g19
g4
NtRp3937
(lp3938
F-5
aF-5
absg37
F7.0710678118654755
sg38
(lp3939
sg25
(lp3940
sg41
g3940
sbasbag2
(g11
g4
NtRp3941
(dp3942
g14
Nsg15
(lp3943
sg17
I00
sg18
g2
(g19
g4
NtRp3944
(lp3945
F0
aF-70
absg22
g23
sg24
F119.09448
sg8
F189.09448
sg25
(lp3946
sg27
g2
(g19
g4
NtRp3947
(lp3948
F400
aF119.09448
absg30
F400
sg7
F400
sg31
g2
(g19
g4
NtRp3949
(lp3950
F400
aF189.09448
absg34
(lp3951
sg36
I1
sg37
F70
sg38
(lp3952
sg40
F442.44403303295934
sg41
(lp3953
g2
(g43
g4
NtRp3954
(dp3955
g27
g2
(g19
g4
NtRp3956
(lp3957
F400
aF119.09448
absg31
g2
(g19
g4
NtRp3958
(lp3959
F400
aF189.09448
absg14
Nsg34
(lp3960
sg15
g3960
sg18
g2
(g19
g4
NtRp3961
(lp3962
F0
aF-70
absg37
F70
sg38
(lp3963
sg25
(lp3964
sg41
g3964
sbasbag2
(g11
g4
NtRp3965
(dp3966
g14
Nsg15
(lp3967
sg17
I00
sg18
g2
(g19
g4
NtRp3968
(lp3969
F5
aF-5
absg22
g23
sg24
F114.09448
sg8
F119.09448
sg25
(lp3970
sg27
g2
(g19
g4
NtRp3971
(lp3972
F405
aF114.09448
absg30
F400
sg7
F405
sg31
g2
(g19
g4
NtRp3973
(lp3974
F400
aF119.09448
absg34
(lp3975
sg36
I1
sg37
F7.0710678118654755
sg38
(lp3976
sg40
F420.7642455894636
sg41
(lp3977
g2
(g43
g4
NtRp3978
(dp3979
g27
g2
(g19
g4
NtRp3980
(lp3981
F405
aF114.09448
absg31
g2
(g19
g4
NtRp3982
(lp3983
F400
aF119.09448
absg14
Nsg34
(lp3984
sg15
g3984
sg18
g2
(g19
g4
NtRp3985
(lp3986
F5
aF-5
absg37
F7.0710678118654755
sg38
(lp3987
sg25
(lp3988
sg41
g3988
sbasbasg30
F400
sg24
F114.09448
sg103
g104
sg105
I01
sbsS'N'
g2
(g3
g4
NtRp3989
(dp3990
g7
F350
sg8
F194.09448
sg9
(lp3991
g2
(g11
g4
NtRp3992
(dp3993
g14
Nsg15
(lp3994
sg17
I00
sg18
g2
(g19
g4
NtRp3995
(lp3996
F0
aF-80
absg22
g23
sg24
F114.09448
sg8
F194.09448
sg25
(lp3997
sg27
g2
(g19
g4
NtRp3998
(lp3999
F300
aF114.09448
absg30
F300
sg7
F300
sg31
g2
(g19
g4
NtRp4000
(lp4001
F300
aF194.09448
absg34
(lp4002
sg36
I1
sg37
F80
sg38
(lp4003
sg40
F357.31312201830821
sg41
(lp4004
g2
(g43
g4
NtRp4005
(dp4006
g27
g2
(g19
g4
NtRp4007
(lp4008
F300
aF114.09448
absg31
g2
(g19
g4
NtRp4009
(lp4010
F300
aF194.09448
absg14
Nsg34
(lp4011
sg15
g4011
sg18
g2
(g19
g4
NtRp4012
(lp4013
F0
aF-80
absg37
F80
sg38
(lp4014
sg25
(lp4015
sg41
g4015
sbasbag2
(g11
g4
NtRp4016
(dp4017
g14
Nsg15
(lp4018
sg17
I00
sg18
g2
(g19
g4
NtRp4019
(lp4020
F50
aF80
absg22
g23
sg24
F114.09448
sg8
F194.09448
sg25
(lp4021
sg27
g2
(g19
g4
NtRp4022
(lp4023
F350
aF194.09448
absg30
F300
sg7
F350
sg31
g2
(g19
g4
NtRp4024
(lp4025
F300
aF114.09448
absg34
(lp4026
sg36
I1
sg37
F94.339811320566042
sg38
(lp4027
sg40
F400.21577575911522
sg41
(lp4028
g2
(g43
g4
NtRp4029
(dp4030
g27
g2
(g19
g4
NtRp4031
(lp4032
F350
aF194.09448
absg31
g2
(g19
g4
NtRp4033
(lp4034
F300
aF114.09448
absg14
Nsg34
(lp4035
sg15
g4035
sg18
g2
(g19
g4
NtRp4036
(lp4037
F50
aF80
absg37
F94.339811320566042
sg38
(lp4038
sg25
(lp4039
sg41
g4039
sbasbag2
(g11
g4
NtRp4040
(dp4041
g14
Nsg15
(lp4042
sg17
I00
sg18
g2
(g19
g4
NtRp4043
(lp4044
F0
aF-80
absg22
g23
sg24
F114.09448
sg8
F194.09448
sg25
(lp4045
sg27
g2
(g19
g4
NtRp4046
(lp4047
F350
aF114.09448
absg30
F350
sg7
F350
sg31
g2
(g19
g4
NtRp4048
(lp4049
F350
aF194.09448
absg34
(lp4050
sg36
I1
sg37
F80
sg38
(lp4051
sg40
F400.21577575911522
sg41
(lp4052
g2
(g43
g4
NtRp4053
(dp4054
g27
g2
(g19
g4
NtRp4055
(lp4056
F350
aF114.09448
absg31
g2
(g19
g4
NtRp4057
(lp4058
F350
aF194.09448
absg14
Nsg34
(lp4059
sg15
g4059
sg18
g2
(g19
g4
NtRp4060
(lp4061
F0
aF-80
absg37
F80
sg38
(lp4062
sg25
(lp4063
sg41
g4063
sbasbasg30
F300
sg24
F114.09448
sg103
g104
sg105
I01
sbsS'Q'
g2
(g3
g4
NtRp4064
(dp4065
g7
F650
sg8
F194.09448
sg9
(lp4066
g2
(g11
g4
NtRp4067
(dp4068
g14
Nsg15
(lp4069
sg17
I00
sg18
g2
(g19
g4
NtRp4070
(lp4071
F40
aF0
absg22
g23
sg24
F114.09448
sg8
F114.09448
sg25
(lp4072
sg27
g2
(g19
g4
NtRp4073
(lp4074
F645
aF114.09448
absg30
F605
sg7
F645
sg31
g2
(g19
g4
NtRp4075
(lp4076
F605
aF114.09448
absg34
(lp4077
sg36
I1
sg37
F40
sg38
(lp4078
sg40
F655.01339708930414
sg41
(lp4079
g2
(g43
g4
NtRp4080
(dp4081
g27
g2
(g19
g4
NtRp4082
(lp4083
F645
aF114.09448
absg31
g2
(g19
g4
NtRp4084
(lp4085
F605
aF114.09448
absg14
Nsg34
(lp4086
sg15
g4086
sg18
g2
(g19
g4
NtRp4087
(lp4088
F40
aF0
absg37
F40
sg38
(lp4089
sg25
(lp4090
sg41
g4090
sbasbag2
(g11
g4
NtRp4091
(dp4092
g14
Nsg15
(lp4093
sg17
I00
sg18
g2
(g19
g4
NtRp4094
(lp4095
F5
aF5
absg22
g23
sg24
F114.09448
sg8
F119.09448
sg25
(lp4096
sg27
g2
(g19
g4
NtRp4097
(lp4098
F650
aF119.09448
absg30
F645
sg7
F650
sg31
g2
(g19
g4
NtRp4099
(lp4100
F645
aF114.09448
absg34
(lp4101
sg36
I1
sg37
F7.0710678118654755
sg38
(lp4102
sg40
F660.82031988012477
sg41
(lp4103
g2
(g43
g4
NtRp4104
(dp4105
g27
g2
(g19
g4
NtRp4106
(lp4107
F650
aF119.09448
absg31
g2
(g19
g4
NtRp4108
(lp4109
F645
aF114.09448
absg14
Nsg34
(lp4110
sg15
g4110
sg18
g2
(g19
g4
NtRp4111
(lp4112
F5
aF5
absg37
F7.0710678118654755
sg38
(lp4113
sg25
(lp4114
sg41
g4114
sbasbag2
(g11
g4
NtRp4115
(dp4116
g14
Nsg15
(lp4117
sg17
I00
sg18
g2
(g19
g4
NtRp4118
(lp4119
F0
aF70
absg22
g23
sg24
F119.09448
sg8
F189.09448
sg25
(lp4120
sg27
g2
(g19
g4
NtRp4121
(lp4122
F650
aF189.09448
absg30
F650
sg7
F650
sg31
g2
(g19
g4
NtRp4123
(lp4124
F650
aF119.09448
absg34
(lp4125
sg36
I1
sg37
F70
sg38
(lp4126
sg40
F676.94661707291982
sg41
(lp4127
g2
(g43
g4
NtRp4128
(dp4129
g27
g2
(g19
g4
NtRp4130
(lp4131
F650
aF189.09448
absg31
g2
(g19
g4
NtRp4132
(lp4133
F650
aF119.09448
absg14
Nsg34
(lp4134
sg15
g4134
sg18
g2
(g19
g4
NtRp4135
(lp4136
F0
aF70
absg37
F70
sg38
(lp4137
sg25
(lp4138
sg41
g4138
sbasbag2
(g11
g4
NtRp4139
(dp4140
g14
Nsg15
(lp4141
sg17
I00
sg18
g2
(g19
g4
NtRp4142
(lp4143
F-5
aF5
absg22
g23
sg24
F189.09448
sg8
F194.09448
sg25
(lp4144
sg27
g2
(g19
g4
NtRp4145
(lp4146
F645
aF194.09448
absg30
F645
sg7
F650
sg31
g2
(g19
g4
NtRp4147
(lp4148
F650
aF189.09448
absg34
(lp4149
sg36
I1
sg37
F7.0710678118654755
sg38
(lp4150
sg40
F676.94661707291982
sg41
(lp4151
g2
(g43
g4
NtRp4152
(dp4153
g27
g2
(g19
g4
NtRp4154
(lp4155
F645
aF194.09448
absg31
g2
(g19
g4
NtRp4156
(lp4157
F650
aF189.09448
absg14
Nsg34
(lp4158
sg15
g4158
sg18
g2
(g19
g4
NtRp4159
(lp4160
F-5
aF5
absg37
F7.0710678118654755
sg38
(lp4161
sg25
(lp4162
sg41
g4162
sbasbag2
(g11
g4
NtRp4163
(dp4164
g14
Nsg15
(lp4165
sg17
I00
sg18
g2
(g19
g4
NtRp4166
(lp4167
F-40
aF0
absg22
g23
sg24
F194.09448
sg8
F194.09448
sg25
(lp4168
sg27
g2
(g19
g4
NtRp4169
(lp4170
F605
aF194.09448
absg30
F605
sg7
F645
sg31
g2
(g19
g4
NtRp4171
(lp4172
F645
aF194.09448
absg34
(lp4173
sg36
I1
sg37
F40
sg38
(lp4174
sg40
F673.5708330728628
sg41
(lp4175
g2
(g43
g4
NtRp4176
(dp4177
g27
g2
(g19
g4
NtRp4178
(lp4179
F605
aF194.09448
absg31
g2
(g19
g4
NtRp4180
(lp4181
F645
aF194.09448
absg14
Nsg34
(lp4182
sg15
g4182
sg18
g2
(g19
g4
NtRp4183
(lp4184
F-40
aF0
absg37
F40
sg38
(lp4185
sg25
(lp4186
sg41
g4186
sbasbag2
(g11
g4
NtRp4187
(dp4188
g14
Nsg15
(lp4189
sg17
I00
sg18
g2
(g19
g4
NtRp4190
(lp4191
F-5
aF-5
absg22
g23
sg24
F189.09448
sg8
F194.09448
sg25
(lp4192
sg27
g2
(g19
g4
NtRp4193
(lp4194
F600
aF189.09448
absg30
F600
sg7
F605
sg31
g2
(g19
g4
NtRp4195
(lp4196
F605
aF194.09448
absg34
(lp4197
sg36
I1
sg37
F7.0710678118654755
sg38
(lp4198
sg40
F635.37206986652347
sg41
(lp4199
g2
(g43
g4
NtRp4200
(dp4201
g27
g2
(g19
g4
NtRp4202
(lp4203
F600
aF189.09448
absg31
g2
(g19
g4
NtRp4204
(lp4205
F605
aF194.09448
absg14
Nsg34
(lp4206
sg15
g4206
sg18
g2
(g19
g4
NtRp4207
(lp4208
F-5
aF-5
absg37
F7.0710678118654755
sg38
(lp4209
sg25
(lp4210
sg41
g4210
sbasbag2
(g11
g4
NtRp4211
(dp4212
g14
Nsg15
(lp4213
sg17
I00
sg18
g2
(g19
g4
NtRp4214
(lp4215
F0
aF-70
absg22
g23
sg24
F119.09448
sg8
F189.09448
sg25
(lp4216
sg27
g2
(g19
g4
NtRp4217
(lp4218
F600
aF119.09448
absg30
F600
sg7
F600
sg31
g2
(g19
g4
NtRp4219
(lp4220
F600
aF189.09448
absg34
(lp4221
sg36
I1
sg37
F70
sg38
(lp4222
sg40
F629.09198243696471
sg41
(lp4223
g2
(g43
g4
NtRp4224
(dp4225
g27
g2
(g19
g4
NtRp4226
(lp4227
F600
aF119.09448
absg31
g2
(g19
g4
NtRp4228
(lp4229
F600
aF189.09448
absg14
Nsg34
(lp4230
sg15
g4230
sg18
g2
(g19
g4
NtRp4231
(lp4232
F0
aF-70
absg37
F70
sg38
(lp4233
sg25
(lp4234
sg41
g4234
sbasbag2
(g11
g4
NtRp4235
(dp4236
g14
Nsg15
(lp4237
sg17
I00
sg18
g2
(g19
g4
NtRp4238
(lp4239
F5
aF-5
absg22
g23
sg24
F114.09448
sg8
F119.09448
sg25
(lp4240
sg27
g2
(g19
g4
NtRp4241
(lp4242
F605
aF114.09448
absg30
F600
sg7
F605
sg31
g2
(g19
g4
NtRp4243
(lp4244
F600
aF119.09448
absg34
(lp4245
sg36
I1
sg37
F7.0710678118654755
sg38
(lp4246
sg40
F615.66431630107525
sg41
(lp4247
g2
(g43
g4
NtRp4248
(dp4249
g27
g2
(g19
g4
NtRp4250
(lp4251
F605
aF114.09448
absg31
g2
(g19
g4
NtRp4252
(lp4253
F600
aF119.09448
absg14
Nsg34
(lp4254
sg15
g4254
sg18
g2
(g19
g4
NtRp4255
(lp4256
F5
aF-5
absg37
F7.0710678118654755
sg38
(lp4257
sg25
(lp4258
sg41
g4258
sbasbag2
(g11
g4
NtRp4259
(dp4260
g14
Nsg15
(lp4261
sg17
I00
sg18
g2
(g19
g4
NtRp4262
(lp4263
F-15
aF-20
absg22
g23
sg24
F174.09448
sg8
F194.09448
sg25
(lp4264
sg27
g2
(g19
g4
NtRp4265
(lp4266
F635
aF174.09448
absg30
F635
sg7
F650
sg31
g2
(g19
g4
NtRp4267
(lp4268
F650
aF194.09448
absg34
(lp4269
sg36
I1
sg37
F25
sg38
(lp4270
sg40
F678.36027829352633
sg41
(lp4271
g2
(g43
g4
NtRp4272
(dp4273
g27
g2
(g19
g4
NtRp4274
(lp4275
F635
aF174.09448
absg31
g2
(g19
g4
NtRp4276
(lp4277
F650
aF194.09448
absg14
Nsg34
(lp4278
sg15
g4278
sg18
g2
(g19
g4
NtRp4279
(lp4280
F-15
aF-20
absg37
F25
sg38
(lp4281
sg25
(lp4282
sg41
g4282
sbasbag2
(g11
g4
NtRp4283
(dp4284
g14
Nsg15
(lp4285
sg17
I00
sg18
g2
(g19
g4
NtRp4286
(lp4287
F0
aF0
absg22
g23
sg24
F174.09448
sg8
F174.09448
sg25
(lp4288
sg27
g2
(g19
g4
NtRp4289
(lp4290
F635
aF174.09448
absg30
F635
sg7
F635
sg31
g2
(g19
g4
NtRp4291
(lp4292
F635
aF174.09448
absg34
(lp4293
sg36
I1
sg37
F0
sg38
(lp4294
sg40
F658.43290316209925
sg41
(lp4295
g2
(g43
g4
NtRp4296
(dp4297
g27
g2
(g19
g4
NtRp4298
(lp4299
F635
aF174.09448
absg31
g2
(g19
g4
NtRp4300
(lp4301
F635
aF174.09448
absg14
Nsg34
(lp4302
sg15
g4302
sg18
g2
(g19
g4
NtRp4303
(lp4304
F0
aF0
absg37
F0
sg38
(lp4305
sg25
(lp4306
sg41
g4306
sbasbasg30
F600
sg24
F114.09448
sg103
g104
sg105
I01
sbsS'P'
g2
(g3
g4
NtRp4307
(dp4308
g7
F550
sg8
F194.09448
sg9
(lp4309
g2
(g11
g4
NtRp4310
(dp4311
g14
Nsg15
(lp4312
sg17
I00
sg18
g2
(g19
g4
NtRp4313
(lp4314
F0
aF-80
absg22
g23
sg24
F114.09448
sg8
F194.09448
sg25
(lp4315
sg27
g2
(g19
g4
NtRp4316
(lp4317
F500
aF114.09448
absg30
F500
sg7
F500
sg31
g2
(g19
g4
NtRp4318
(lp4319
F500
aF194.09448
absg34
(lp4320
sg36
I1
sg37
F80
sg38
(lp4321
sg40
F536.35125353304659
sg41
(lp4322
g2
(g43
g4
NtRp4323
(dp4324
g27
g2
(g19
g4
NtRp4325
(lp4326
F500
aF114.09448
absg31
g2
(g19
g4
NtRp4327
(lp4328
F500
aF194.09448
absg14
Nsg34
(lp4329
sg15
g4329
sg18
g2
(g19
g4
NtRp4330
(lp4331
F0
aF-80
absg37
F80
sg38
(lp4332
sg25
(lp4333
sg41
g4333
sbasbag2
(g11
g4
NtRp4334
(dp4335
g14
Nsg15
(lp4336
sg17
I00
sg18
g2
(g19
g4
NtRp4337
(lp4338
F45
aF0
absg22
g23
sg24
F114.09448
sg8
F114.09448
sg25
(lp4339
sg27
g2
(g19
g4
NtRp4340
(lp4341
F545
aF114.09448
absg30
F500
sg7
F545
sg31
g2
(g19
g4
NtRp4342
(lp4343
F500
aF114.09448
absg34
(lp4344
sg36
I1
sg37
F45
sg38
(lp4345
sg40
F556.81464632898303
sg41
(lp4346
g2
(g43
g4
NtRp4347
(dp4348
g27
g2
(g19
g4
NtRp4349
(lp4350
F545
aF114.09448
absg31
g2
(g19
g4
NtRp4351
(lp4352
F500
aF114.09448
absg14
Nsg34
(lp4353
sg15
g4353
sg18
g2
(g19
g4
NtRp4354
(lp4355
F45
aF0
absg37
F45
sg38
(lp4356
sg25
(lp4357
sg41
g4357
sbasbag2
(g11
g4
NtRp4358
(dp4359
g14
Nsg15
(lp4360
sg17
I00
sg18
g2
(g19
g4
NtRp4361
(lp4362
F5
aF5
absg22
g23
sg24
F114.09448
sg8
F119.09448
sg25
(lp4363
sg27
g2
(g19
g4
NtRp4364
(lp4365
F550
aF119.09448
absg30
F545
sg7
F550
sg31
g2
(g19
g4
NtRp4366
(lp4367
F545
aF114.09448
absg34
(lp4368
sg36
I1
sg37
F7.0710678118654755
sg38
(lp4369
sg40
F562.74638618694871
sg41
(lp4370
g2
(g43
g4
NtRp4371
(dp4372
g27
g2
(g19
g4
NtRp4373
(lp4374
F550
aF119.09448
absg31
g2
(g19
g4
NtRp4375
(lp4376
F545
aF114.09448
absg14
Nsg34
(lp4377
sg15
g4377
sg18
g2
(g19
g4
NtRp4378
(lp4379
F5
aF5
absg37
F7.0710678118654755
sg38
(lp4380
sg25
(lp4381
sg41
g4381
sbasbag2
(g11
g4
NtRp4382
(dp4383
g14
Nsg15
(lp4384
sg17
I00
sg18
g2
(g19
g4
NtRp4385
(lp4386
F0
aF30
absg22
g23
sg24
F119.09448
sg8
F149.09448
sg25
(lp4387
sg27
g2
(g19
g4
NtRp4388
(lp4389
F550
aF149.09448
absg30
F550
sg7
F550
sg31
g2
(g19
g4
NtRp4390
(lp4391
F550
aF119.09448
absg34
(lp4392
sg36
I1
sg37
F30
sg38
(lp4393
sg40
F569.85012412604635
sg41
(lp4394
g2
(g43
g4
NtRp4395
(dp4396
g27
g2
(g19
g4
NtRp4397
(lp4398
F550
aF149.09448
absg31
g2
(g19
g4
NtRp4399
(lp4400
F550
aF119.09448
absg14
Nsg34
(lp4401
sg15
g4401
sg18
g2
(g19
g4
NtRp4402
(lp4403
F0
aF30
absg37
F30
sg38
(lp4404
sg25
(lp4405
sg41
g4405
sbasbag2
(g11
g4
NtRp4406
(dp4407
g14
Nsg15
(lp4408
sg17
I00
sg18
g2
(g19
g4
NtRp4409
(lp4410
F-5
aF5
absg22
g23
sg24
F149.09448
sg8
F154.09448
sg25
(lp4411
sg27
g2
(g19
g4
NtRp4412
(lp4413
F545
aF154.09448
absg30
F545
sg7
F550
sg31
g2
(g19
g4
NtRp4414
(lp4415
F550
aF149.09448
absg34
(lp4416
sg36
I1
sg37
F7.0710678118654755
sg38
(lp4417
sg40
F569.85012412604635
sg41
(lp4418
g2
(g43
g4
NtRp4419
(dp4420
g27
g2
(g19
g4
NtRp4421
(lp4422
F545
aF154.09448
absg31
g2
(g19
g4
NtRp4423
(lp4424
F550
aF149.09448
absg14
Nsg34
(lp4425
sg15
g4425
sg18
g2
(g19
g4
NtRp4426
(lp4427
F-5
aF5
absg37
F7.0710678118654755
sg38
(lp4428
sg25
(lp4429
sg41
g4429
sbasbag2
(g11
g4
NtRp4430
(dp4431
g14
Nsg15
(lp4432
sg17
I00
sg18
g2
(g19
g4
NtRp4433
(lp4434
F-45
aF0
absg22
g23
sg24
F154.09448
sg8
F154.09448
sg25
(lp4435
sg27
g2
(g19
g4
NtRp4436
(lp4437
F500
aF154.09448
absg30
F500
sg7
F545
sg31
g2
(g19
g4
NtRp4438
(lp4439
F545
aF154.09448
absg34
(lp4440
sg36
I1
sg37
F45
sg38
(lp4441
sg40
F566.36570232180406
sg41
(lp4442
g2
(g43
g4
NtRp4443
(dp4444
g27
g2
(g19
g4
NtRp4445
(lp4446
F500
aF154.09448
absg31
g2
(g19
g4
NtRp4447
(lp4448
F545
aF154.09448
absg14
Nsg34
(lp4449
sg15
g4449
sg18
g2
(g19
g4
NtRp4450
(lp4451
F-45
aF0
absg37
F45
sg38
(lp4452
sg25
(lp4453
sg41
g4453
sbasbag2
(g11
g4
NtRp4454
(dp4455
g14
Nsg15
(lp4456
sg17
I00
sg18
g2
(g19
g4
NtRp4457
(lp4458
F0
aF0
absg22
g23
sg24
F154.09448
sg8
F154.09448
sg25
(lp4459
sg27
g2
(g19
g4
NtRp4460
(lp4461
F500
aF154.09448
absg30
F500
sg7
F500
sg31
g2
(g19
g4
NtRp4462
(lp4463
F500
aF154.09448
absg34
(lp4464
sg36
I1
sg37
F0
sg38
(lp4465
sg40
F523.20656414696327
sg41
(lp4466
g2
(g43
g4
NtRp4467
(dp4468
g27
g2
(g19
g4
NtRp4469
(lp4470
F500
aF154.09448
absg31
g2
(g19
g4
NtRp4471
(lp4472
F500
aF154.09448
absg14
Nsg34
(lp4473
sg15
g4473
sg18
g2
(g19
g4
NtRp4474
(lp4475
F0
aF0
absg37
F0
sg38
(lp4476
sg25
(lp4477
sg41
g4477
sbasbasg30
F500
sg24
F114.09448
sg103
g104
sg105
I01
sbsS'S'
g2
(g3
g4
NtRp4478
(dp4479
g7
F850
sg8
F194.09448
sg9
(lp4480
g2
(g11
g4
NtRp4481
(dp4482
g14
Nsg15
(lp4483
sg17
I00
sg18
g2
(g19
g4
NtRp4484
(lp4485
F-45
aF0
absg22
g23
sg24
F114.09448
sg8
F114.09448
sg25
(lp4486
sg27
g2
(g19
g4
NtRp4487
(lp4488
F805
aF114.09448
absg30
F805
sg7
F850
sg31
g2
(g19
g4
NtRp4489
(lp4490
F850
aF114.09448
absg34
(lp4491
sg36
I1
sg37
F45
sg38
(lp4492
sg40
F857.6231983607197
sg41
(lp4493
g2
(g43
g4
NtRp4494
(dp4495
g27
g2
(g19
g4
NtRp4496
(lp4497
F805
aF114.09448
absg31
g2
(g19
g4
NtRp4498
(lp4499
F850
aF114.09448
absg14
Nsg34
(lp4500
sg15
g4500
sg18
g2
(g19
g4
NtRp4501
(lp4502
F-45
aF0
absg37
F45
sg38
(lp4503
sg25
(lp4504
sg41
g4504
sbasbag2
(g11
g4
NtRp4505
(dp4506
g14
Nsg15
(lp4507
sg17
I00
sg18
g2
(g19
g4
NtRp4508
(lp4509
F-5
aF5
absg22
g23
sg24
F114.09448
sg8
F119.09448
sg25
(lp4510
sg27
g2
(g19
g4
NtRp4511
(lp4512
F800
aF119.09448
absg30
F800
sg7
F805
sg31
g2
(g19
g4
NtRp4513
(lp4514
F805
aF114.09448
absg34
(lp4515
sg36
I1
sg37
F7.0710678118654755
sg38
(lp4516
sg40
F813.04523266941942
sg41
(lp4517
g2
(g43
g4
NtRp4518
(dp4519
g27
g2
(g19
g4
NtRp4520
(lp4521
F800
aF119.09448
absg31
g2
(g19
g4
NtRp4522
(lp4523
F805
aF114.09448
absg14
Nsg34
(lp4524
sg15
g4524
sg18
g2
(g19
g4
NtRp4525
(lp4526
F-5
aF5
absg37
F7.0710678118654755
sg38
(lp4527
sg25
(lp4528
sg41
g4528
sbasbag2
(g11
g4
NtRp4529
(dp4530
g14
Nsg15
(lp4531
sg17
I00
sg18
g2
(g19
g4
NtRp4532
(lp4533
F0
aF30
absg22
g23
sg24
F119.09448
sg8
F149.09448
sg25
(lp4534
sg27
g2
(g19
g4
NtRp4535
(lp4536
F800
aF149.09448
absg30
F800
sg7
F800
sg31
g2
(g19
g4
NtRp4537
(lp4538
F800
aF119.09448
absg34
(lp4539
sg36
I1
sg37
F30
sg38
(lp4540
sg40
F813.77463954492362
sg41
(lp4541
g2
(g43
g4
NtRp4542
(dp4543
g27
g2
(g19
g4
NtRp4544
(lp4545
F800
aF149.09448
absg31
g2
(g19
g4
NtRp4546
(lp4547
F800
aF119.09448
absg14
Nsg34
(lp4548
sg15
g4548
sg18
g2
(g19
g4
NtRp4549
(lp4550
F0
aF30
absg37
F30
sg38
(lp4551
sg25
(lp4552
sg41
g4552
sbasbag2
(g11
g4
NtRp4553
(dp4554
g14
Nsg15
(lp4555
sg17
I00
sg18
g2
(g19
g4
NtRp4556
(lp4557
F5
aF5
absg22
g23
sg24
F149.09448
sg8
F154.09448
sg25
(lp4558
sg27
g2
(g19
g4
NtRp4559
(lp4560
F805
aF154.09448
absg30
F800
sg7
F805
sg31
g2
(g19
g4
NtRp4561
(lp4562
F800
aF149.09448
absg34
(lp4563
sg36
I1
sg37
F7.0710678118654755
sg38
(lp4564
sg40
F819.6158299877269
sg41
(lp4565
g2
(g43
g4
NtRp4566
(dp4567
g27
g2
(g19
g4
NtRp4568
(lp4569
F805
aF154.09448
absg31
g2
(g19
g4
NtRp4570
(lp4571
F800
aF149.09448
absg14
Nsg34
(lp4572
sg15
g4572
sg18
g2
(g19
g4
NtRp4573
(lp4574
F5
aF5
absg37
F7.0710678118654755
sg38
(lp4575
sg25
(lp4576
sg41
g4576
sbasbag2
(g11
g4
NtRp4577
(dp4578
g14
Nsg15
(lp4579
sg17
I00
sg18
g2
(g19
g4
NtRp4580
(lp4581
F40
aF0
absg22
g23
sg24
F154.09448
sg8
F154.09448
sg25
(lp4582
sg27
g2
(g19
g4
NtRp4583
(lp4584
F845
aF154.09448
absg30
F805
sg7
F845
sg31
g2
(g19
g4
NtRp4585
(lp4586
F805
aF154.09448
absg34
(lp4587
sg36
I1
sg37
F40
sg38
(lp4588
sg40
F858.9354508730388
sg41
(lp4589
g2
(g43
g4
NtRp4590
(dp4591
g27
g2
(g19
g4
NtRp4592
(lp4593
F845
aF154.09448
absg31
g2
(g19
g4
NtRp4594
(lp4595
F805
aF154.09448
absg14
Nsg34
(lp4596
sg15
g4596
sg18
g2
(g19
g4
NtRp4597
(lp4598
F40
aF0
absg37
F40
sg38
(lp4599
sg25
(lp4600
sg41
g4600
sbasbag2
(g11
g4
NtRp4601
(dp4602
g14
Nsg15
(lp4603
sg17
I00
sg18
g2
(g19
g4
NtRp4604
(lp4605
F5
aF5
absg22
g23
sg24
F154.09448
sg8
F159.09448
sg25
(lp4606
sg27
g2
(g19
g4
NtRp4607
(lp4608
F850
aF159.09448
absg30
F845
sg7
F850
sg31
g2
(g19
g4
NtRp4609
(lp4610
F845
aF154.09448
absg34
(lp4611
sg36
I1
sg37
F7.0710678118654755
sg38
(lp4612
sg40
F864.76069150168382
sg41
(lp4613
g2
(g43
g4
NtRp4614
(dp4615
g27
g2
(g19
g4
NtRp4616
(lp4617
F850
aF159.09448
absg31
g2
(g19
g4
NtRp4618
(lp4619
F845
aF154.09448
absg14
Nsg34
(lp4620
sg15
g4620
sg18
g2
(g19
g4
NtRp4621
(lp4622
F5
aF5
absg37
F7.0710678118654755
sg38
(lp4623
sg25
(lp4624
sg41
g4624
sbasbag2
(g11
g4
NtRp4625
(dp4626
g14
Nsg15
(lp4627
sg17
I00
sg18
g2
(g19
g4
NtRp4628
(lp4629
F0
aF30
absg22
g23
sg24
F159.09448
sg8
F189.09448
sg25
(lp4630
sg27
g2
(g19
g4
NtRp4631
(lp4632
F850
aF189.09448
absg30
F850
sg7
F850
sg31
g2
(g19
g4
NtRp4633
(lp4634
F850
aF159.09448
absg34
(lp4635
sg36
I1
sg37
F30
sg38
(lp4636
sg40
F870.77937640166374
sg41
(lp4637
g2
(g43
g4
NtRp4638
(dp4639
g27
g2
(g19
g4
NtRp4640
(lp4641
F850
aF189.09448
absg31
g2
(g19
g4
NtRp4642
(lp4643
F850
aF159.09448
absg14
Nsg34
(lp4644
sg15
g4644
sg18
g2
(g19
g4
NtRp4645
(lp4646
F0
aF30
absg37
F30
sg38
(lp4647
sg25
(lp4648
sg41
g4648
sbasbag2
(g11
g4
NtRp4649
(dp4650
g14
Nsg15
(lp4651
sg17
I00
sg18
g2
(g19
g4
NtRp4652
(lp4653
F-5
aF5
absg22
g23
sg24
F189.09448
sg8
F194.09448
sg25
(lp4654
sg27
g2
(g19
g4
NtRp4655
(lp4656
F845
aF194.09448
absg30
F845
sg7
F850
sg31
g2
(g19
g4
NtRp4657
(lp4658
F850
aF189.09448
absg34
(lp4659
sg36
I1
sg37
F7.0710678118654755
sg38
(lp4660
sg40
F870.77937640166374
sg41
(lp4661
g2
(g43
g4
NtRp4662
(dp4663
g27
g2
(g19
g4
NtRp4664
(lp4665
F845
aF194.09448
absg31
g2
(g19
g4
NtRp4666
(lp4667
F850
aF189.09448
absg14
Nsg34
(lp4668
sg15
g4668
sg18
g2
(g19
g4
NtRp4669
(lp4670
F-5
aF5
absg37
F7.0710678118654755
sg38
(lp4671
sg25
(lp4672
sg41
g4672
sbasbag2
(g11
g4
NtRp4673
(dp4674
g14
Nsg15
(lp4675
sg17
I00
sg18
g2
(g19
g4
NtRp4676
(lp4677
F-45
aF0
absg22
g23
sg24
F194.09448
sg8
F194.09448
sg25
(lp4678
sg27
g2
(g19
g4
NtRp4679
(lp4680
F800
aF194.09448
absg30
F800
sg7
F845
sg31
g2
(g19
g4
NtRp4681
(lp4682
F845
aF194.09448
absg34
(lp4683
sg36
I1
sg37
F45
sg38
(lp4684
sg40
F867.00499835149185
sg41
(lp4685
g2
(g43
g4
NtRp4686
(dp4687
g27
g2
(g19
g4
NtRp4688
(lp4689
F800
aF194.09448
absg31
g2
(g19
g4
NtRp4690
(lp4691
F845
aF194.09448
absg14
Nsg34
(lp4692
sg15
g4692
sg18
g2
(g19
g4
NtRp4693
(lp4694
F-45
aF0
absg37
F45
sg38
(lp4695
sg25
(lp4696
sg41
g4696
sbasbasg30
F800
sg24
F114.09448
sg103
g104
sg105
I01
sbsS'R'
g2
(g3
g4
NtRp4697
(dp4698
g7
F750
sg8
F194.09448
sg9
(lp4699
g2
(g11
g4
NtRp4700
(dp4701
g14
Nsg15
(lp4702
sg17
I00
sg18
g2
(g19
g4
NtRp4703
(lp4704
F0
aF0
absg22
g23
sg24
F194.09448
sg8
F194.09448
sg25
(lp4705
sg27
g2
(g19
g4
NtRp4706
(lp4707
F745
aF194.09448
absg30
F745
sg7
F745
sg31
g2
(g19
g4
NtRp4708
(lp4709
F745
aF194.09448
absg34
(lp4710
sg36
I1
sg37
F0
sg38
(lp4711
sg40
F769.86860383215424
sg41
(lp4712
g2
(g43
g4
NtRp4713
(dp4714
g27
g2
(g19
g4
NtRp4715
(lp4716
F745
aF194.09448
absg31
g2
(g19
g4
NtRp4717
(lp4718
F745
aF194.09448
absg14
Nsg34
(lp4719
sg15
g4719
sg18
g2
(g19
g4
NtRp4720
(lp4721
F0
aF0
absg37
F0
sg38
(lp4722
sg25
(lp4723
sg41
g4723
sbasbag2
(g11
g4
NtRp4724
(dp4725
g14
Nsg15
(lp4726
sg17
I00
sg18
g2
(g19
g4
NtRp4727
(lp4728
F0
aF-80
absg22
g23
sg24
F114.09448
sg8
F194.09448
sg25
(lp4729
sg27
g2
(g19
g4
NtRp4730
(lp4731
F700
aF114.09448
absg30
F700
sg7
F700
sg31
g2
(g19
g4
NtRp4732
(lp4733
F700
aF194.09448
absg34
(lp4734
sg36
I1
sg37
F80
sg38
(lp4735
sg40
F726.41081157047108
sg41
(lp4736
g2
(g43
g4
NtRp4737
(dp4738
g27
g2
(g19
g4
NtRp4739
(lp4740
F700
aF114.09448
absg31
g2
(g19
g4
NtRp4741
(lp4742
F700
aF194.09448
absg14
Nsg34
(lp4743
sg15
g4743
sg18
g2
(g19
g4
NtRp4744
(lp4745
F0
aF-80
absg37
F80
sg38
(lp4746
sg25
(lp4747
sg41
g4747
sbasbag2
(g11
g4
NtRp4748
(dp4749
g14
Nsg15
(lp4750
sg17
I00
sg18
g2
(g19
g4
NtRp4751
(lp4752
F45
aF0
absg22
g23
sg24
F114.09448
sg8
F114.09448
sg25
(lp4753
sg27
g2
(g19
g4
NtRp4754
(lp4755
F745
aF114.09448
absg30
F700
sg7
F745
sg31
g2
(g19
g4
NtRp4756
(lp4757
F700
aF114.09448
absg34
(lp4758
sg36
I1
sg37
F45
sg38
(lp4759
sg40
F753.68597596510335
sg41
(lp4760
g2
(g43
g4
NtRp4761
(dp4762
g27
g2
(g19
g4
NtRp4763
(lp4764
F745
aF114.09448
absg31
g2
(g19
g4
NtRp4765
(lp4766
F700
aF114.09448
absg14
Nsg34
(lp4767
sg15
g4767
sg18
g2
(g19
g4
NtRp4768
(lp4769
F45
aF0
absg37
F45
sg38
(lp4770
sg25
(lp4771
sg41
g4771
sbasbag2
(g11
g4
NtRp4772
(dp4773
g14
Nsg15
(lp4774
sg17
I00
sg18
g2
(g19
g4
NtRp4775
(lp4776
F5
aF5
absg22
g23
sg24
F114.09448
sg8
F119.09448
sg25
(lp4777
sg27
g2
(g19
g4
NtRp4778
(lp4779
F750
aF119.09448
absg30
F745
sg7
F750
sg31
g2
(g19
g4
NtRp4780
(lp4781
F745
aF114.09448
absg34
(lp4782
sg36
I1
sg37
F7.0710678118654755
sg38
(lp4783
sg40
F759.39679691612503
sg41
(lp4784
g2
(g43
g4
NtRp4785
(dp4786
g27
g2
(g19
g4
NtRp4787
(lp4788
F750
aF119.09448
absg31
g2
(g19
g4
NtRp4789
(lp4790
F745
aF114.09448
absg14
Nsg34
(lp4791
sg15
g4791
sg18
g2
(g19
g4
NtRp4792
(lp4793
F5
aF5
absg37
F7.0710678118654755
sg38
(lp4794
sg25
(lp4795
sg41
g4795
sbasbag2
(g11
g4
NtRp4796
(dp4797
g14
Nsg15
(lp4798
sg17
I00
sg18
g2
(g19
g4
NtRp4799
(lp4800
F0
aF30
absg22
g23
sg24
F119.09448
sg8
F149.09448
sg25
(lp4801
sg27
g2
(g19
g4
NtRp4802
(lp4803
F750
aF149.09448
absg30
F750
sg7
F750
sg31
g2
(g19
g4
NtRp4804
(lp4805
F750
aF119.09448
absg34
(lp4806
sg36
I1
sg37
F30
sg38
(lp4807
sg40
F764.67585548810837
sg41
(lp4808
g2
(g43
g4
NtRp4809
(dp4810
g27
g2
(g19
g4
NtRp4811
(lp4812
F750
aF149.09448
absg31
g2
(g19
g4
NtRp4813
(lp4814
F750
aF119.09448
absg14
Nsg34
(lp4815
sg15
g4815
sg18
g2
(g19
g4
NtRp4816
(lp4817
F0
aF30
absg37
F30
sg38
(lp4818
sg25
(lp4819
sg41
g4819
sbasbag2
(g11
g4
NtRp4820
(dp4821
g14
Nsg15
(lp4822
sg17
I00
sg18
g2
(g19
g4
NtRp4823
(lp4824
F-5
aF5
absg22
g23
sg24
F149.09448
sg8
F154.09448
sg25
(lp4825
sg27
g2
(g19
g4
NtRp4826
(lp4827
F745
aF154.09448
absg30
F745
sg7
F750
sg31
g2
(g19
g4
NtRp4828
(lp4829
F750
aF149.09448
absg34
(lp4830
sg36
I1
sg37
F7.0710678118654755
sg38
(lp4831
sg40
F764.67585548810837
sg41
(lp4832
g2
(g43
g4
NtRp4833
(dp4834
g27
g2
(g19
g4
NtRp4835
(lp4836
F745
aF154.09448
absg31
g2
(g19
g4
NtRp4837
(lp4838
F750
aF149.09448
absg14
Nsg34
(lp4839
sg15
g4839
sg18
g2
(g19
g4
NtRp4840
(lp4841
F-5
aF5
absg37
F7.0710678118654755
sg38
(lp4842
sg25
(lp4843
sg41
g4843
sbasbag2
(g11
g4
NtRp4844
(dp4845
g14
Nsg15
(lp4846
sg17
I00
sg18
g2
(g19
g4
NtRp4847
(lp4848
F-45
aF0
absg22
g23
sg24
F154.09448
sg8
F154.09448
sg25
(lp4849
sg27
g2
(g19
g4
NtRp4850
(lp4851
F700
aF154.09448
absg30
F700
sg7
F745
sg31
g2
(g19
g4
NtRp4852
(lp4853
F745
aF154.09448
absg34
(lp4854
sg36
I1
sg37
F45
sg38
(lp4855
sg40
F760.76941892170612
sg41
(lp4856
g2
(g43
g4
NtRp4857
(dp4858
g27
g2
(g19
g4
NtRp4859
(lp4860
F700
aF154.09448
absg31
g2
(g19
g4
NtRp4861
(lp4862
F745
aF154.09448
absg14
Nsg34
(lp4863
sg15
g4863
sg18
g2
(g19
g4
NtRp4864
(lp4865
F-45
aF0
absg37
F45
sg38
(lp4866
sg25
(lp4867
sg41
g4867
sbasbag2
(g11
g4
NtRp4868
(dp4869
g14
Nsg15
(lp4870
sg17
I00
sg18
g2
(g19
g4
NtRp4871
(lp4872
F50
aF40
absg22
g23
sg24
F154.09448
sg8
F194.09448
sg25
(lp4873
sg27
g2
(g19
g4
NtRp4874
(lp4875
F750
aF194.09448
absg30
F700
sg7
F750
sg31
g2
(g19
g4
NtRp4876
(lp4877
F700
aF154.09448
absg34
(lp4878
sg36
I1
sg37
F64.031242374328485
sg38
(lp4879
sg40
F774.70811740065722
sg41
(lp4880
g2
(g43
g4
NtRp4881
(dp4882
g27
g2
(g19
g4
NtRp4883
(lp4884
F750
aF194.09448
absg31
g2
(g19
g4
NtRp4885
(lp4886
F700
aF154.09448
absg14
Nsg34
(lp4887
sg15
g4887
sg18
g2
(g19
g4
NtRp4888
(lp4889
F50
aF40
absg37
F64.031242374328485
sg38
(lp4890
sg25
(lp4891
sg41
g4891
sbasbag2
(g11
g4
NtRp4892
(dp4893
g14
Nsg15
(lp4894
sg17
I00
sg18
g2
(g19
g4
NtRp4895
(lp4896
F0
aF0
absg22
g23
sg24
F194.09448
sg8
F194.09448
sg25
(lp4897
sg27
g2
(g19
g4
NtRp4898
(lp4899
F750
aF194.09448
absg30
F750
sg7
F750
sg31
g2
(g19
g4
NtRp4900
(lp4901
F750
aF194.09448
absg34
(lp4902
sg36
I1
sg37
F0
sg38
(lp4903
sg40
F774.70811740065722
sg41
(lp4904
g2
(g43
g4
NtRp4905
(dp4906
g27
g2
(g19
g4
NtRp4907
(lp4908
F750
aF194.09448
absg31
g2
(g19
g4
NtRp4909
(lp4910
F750
aF194.09448
absg14
Nsg34
(lp4911
sg15
g4911
sg18
g2
(g19
g4
NtRp4912
(lp4913
F0
aF0
absg37
F0
sg38
(lp4914
sg25
(lp4915
sg41
g4915
sbasbasg30
F700
sg24
F114.09448
sg103
g104
sg105
I01
sbsS'U'
g2
(g3
g4
NtRp4916
(dp4917
g7
F50
sg8
F294.09447999999998
sg9
(lp4918
g2
(g11
g4
NtRp4919
(dp4920
g14
Nsg15
(lp4921
sg17
I00
sg18
g2
(g19
g4
NtRp4922
(lp4923
F0
aF74.999999999999972
absg22
g23
sg24
F214.09448
sg8
F289.09447999999998
sg25
(lp4924
sg27
g2
(g19
g4
NtRp4925
(lp4926
F0
aF289.09447999999998
absg30
F0
sg7
F0
sg31
g2
(g19
g4
NtRp4927
(lp4928
F0
aF214.09448
absg34
(lp4929
sg36
I1
sg37
F74.999999999999972
sg38
(lp4930
sg40
F289.09447999999998
sg41
(lp4931
g2
(g43
g4
NtRp4932
(dp4933
g27
g2
(g19
g4
NtRp4934
(lp4935
F0
aF289.09447999999998
absg31
g2
(g19
g4
NtRp4936
(lp4937
F0
aF214.09448
absg14
Nsg34
(lp4938
sg15
g4938
sg18
g2
(g19
g4
NtRp4939
(lp4940
F0
aF74.999999999999972
absg37
F74.999999999999972
sg38
(lp4941
sg25
(lp4942
sg41
g4942
sbasbag2
(g11
g4
NtRp4943
(dp4944
g14
Nsg15
(lp4945
sg17
I00
sg18
g2
(g19
g4
NtRp4946
(lp4947
F5
aF5
absg22
g23
sg24
F289.09447999999998
sg8
F294.09447999999998
sg25
(lp4948
sg27
g2
(g19
g4
NtRp4949
(lp4950
F5
aF294.09447999999998
absg30
F0
sg7
F5
sg31
g2
(g19
g4
NtRp4951
(lp4952
F0
aF289.09447999999998
absg34
(lp4953
sg36
I1
sg37
F7.0710678118654755
sg38
(lp4954
sg40
F294.13698027699678
sg41
(lp4955
g2
(g43
g4
NtRp4956
(dp4957
g27
g2
(g19
g4
NtRp4958
(lp4959
F5
aF294.09447999999998
absg31
g2
(g19
g4
NtRp4960
(lp4961
F0
aF289.09447999999998
absg14
Nsg34
(lp4962
sg15
g4962
sg18
g2
(g19
g4
NtRp4963
(lp4964
F5
aF5
absg37
F7.0710678118654755
sg38
(lp4965
sg25
(lp4966
sg41
g4966
sbasbag2
(g11
g4
NtRp4967
(dp4968
g14
Nsg15
(lp4969
sg17
I00
sg18
g2
(g19
g4
NtRp4970
(lp4971
F40
aF0
absg22
g23
sg24
F294.09447999999998
sg8
F294.09447999999998
sg25
(lp4972
sg27
g2
(g19
g4
NtRp4973
(lp4974
F45
aF294.09447999999998
absg30
F5
sg7
F45
sg31
g2
(g19
g4
NtRp4975
(lp4976
F5
aF294.09447999999998
absg34
(lp4977
sg36
I1
sg37
F40
sg38
(lp4978
sg40
F297.51733254798853
sg41
(lp4979
g2
(g43
g4
NtRp4980
(dp4981
g27
g2
(g19
g4
NtRp4982
(lp4983
F45
aF294.09447999999998
absg31
g2
(g19
g4
NtRp4984
(lp4985
F5
aF294.09447999999998
absg14
Nsg34
(lp4986
sg15
g4986
sg18
g2
(g19
g4
NtRp4987
(lp4988
F40
aF0
absg37
F40
sg38
(lp4989
sg25
(lp4990
sg41
g4990
sbasbag2
(g11
g4
NtRp4991
(dp4992
g14
Nsg15
(lp4993
sg17
I00
sg18
g2
(g19
g4
NtRp4994
(lp4995
F5
aF-5
absg22
g23
sg24
F289.09447999999998
sg8
F294.09447999999998
sg25
(lp4996
sg27
g2
(g19
g4
NtRp4997
(lp4998
F50
aF289.09447999999998
absg30
F45
sg7
F50
sg31
g2
(g19
g4
NtRp4999
(lp5000
F45
aF294.09447999999998
absg34
(lp5001
sg36
I1
sg37
F7.0710678118654755
sg38
(lp5002
sg40
F297.51733254798853
sg41
(lp5003
g2
(g43
g4
NtRp5004
(dp5005
g27
g2
(g19
g4
NtRp5006
(lp5007
F50
aF289.09447999999998
absg31
g2
(g19
g4
NtRp5008
(lp5009
F45
aF294.09447999999998
absg14
Nsg34
(lp5010
sg15
g5010
sg18
g2
(g19
g4
NtRp5011
(lp5012
F5
aF-5
absg37
F7.0710678118654755
sg38
(lp5013
sg25
(lp5014
sg41
g5014
sbasbag2
(g11
g4
NtRp5015
(dp5016
g14
Nsg15
(lp5017
sg17
I00
sg18
g2
(g19
g4
NtRp5018
(lp5019
F0
aF-75
absg22
g23
sg24
F214.09447999999998
sg8
F289.09447999999998
sg25
(lp5020
sg27
g2
(g19
g4
NtRp5021
(lp5022
F50
aF214.09447999999998
absg30
F50
sg7
F50
sg31
g2
(g19
g4
NtRp5023
(lp5024
F50
aF289.09447999999998
absg34
(lp5025
sg36
I1
sg37
F75
sg38
(lp5026
sg40
F293.38646588837457
sg41
(lp5027
g2
(g43
g4
NtRp5028
(dp5029
g27
g2
(g19
g4
NtRp5030
(lp5031
F50
aF214.09447999999998
absg31
g2
(g19
g4
NtRp5032
(lp5033
F50
aF289.09447999999998
absg14
Nsg34
(lp5034
sg15
g5034
sg18
g2
(g19
g4
NtRp5035
(lp5036
F0
aF-75
absg37
F75
sg38
(lp5037
sg25
(lp5038
sg41
g5038
sbasbag2
(g11
g4
NtRp5039
(dp5040
g14
Nsg15
(lp5041
sg17
I00
sg18
g2
(g19
g4
NtRp5042
(lp5043
F0
aF0
absg22
g23
sg24
F214.09447999999998
sg8
F214.09447999999998
sg25
(lp5044
sg27
g2
(g19
g4
NtRp5045
(lp5046
F50
aF214.09447999999998
absg30
F50
sg7
F50
sg31
g2
(g19
g4
NtRp5047
(lp5048
F50
aF214.09447999999998
absg34
(lp5049
sg36
I1
sg37
F0
sg38
(lp5050
sg40
F219.85551247687738
sg41
(lp5051
g2
(g43
g4
NtRp5052
(dp5053
g27
g2
(g19
g4
NtRp5054
(lp5055
F50
aF214.09447999999998
absg31
g2
(g19
g4
NtRp5056
(lp5057
F50
aF214.09447999999998
absg14
Nsg34
(lp5058
sg15
g5058
sg18
g2
(g19
g4
NtRp5059
(lp5060
F0
aF0
absg37
F0
sg38
(lp5061
sg25
(lp5062
sg41
g5062
sbasbasg30
F0
sg24
F214.09447999999998
sg103
g104
sg105
I01
sbsS'T'
g2
(g3
g4
NtRp5063
(dp5064
g7
F950
sg8
F194.09448
sg9
(lp5065
g2
(g11
g4
NtRp5066
(dp5067
g14
Nsg15
(lp5068
sg17
I00
sg18
g2
(g19
g4
NtRp5069
(lp5070
F50
aF0
absg22
g23
sg24
F114.09448
sg8
F114.09448
sg25
(lp5071
sg27
g2
(g19
g4
NtRp5072
(lp5073
F950
aF114.09448
absg30
F900
sg7
F950
sg31
g2
(g19
g4
NtRp5074
(lp5075
F900
aF114.09448
absg34
(lp5076
sg36
I1
sg37
F50
sg38
(lp5077
sg40
F956.82681315192576
sg41
(lp5078
g2
(g43
g4
NtRp5079
(dp5080
g27
g2
(g19
g4
NtRp5081
(lp5082
F950
aF114.09448
absg31
g2
(g19
g4
NtRp5083
(lp5084
F900
aF114.09448
absg14
Nsg34
(lp5085
sg15
g5085
sg18
g2
(g19
g4
NtRp5086
(lp5087
F50
aF0
absg37
F50
sg38
(lp5088
sg25
(lp5089
sg41
g5089
sbasbag2
(g11
g4
NtRp5090
(dp5091
g14
Nsg15
(lp5092
sg17
I00
sg18
g2
(g19
g4
NtRp5093
(lp5094
F0
aF0
absg22
g23
sg24
F114.09448
sg8
F114.09448
sg25
(lp5095
sg27
g2
(g19
g4
NtRp5096
(lp5097
F950
aF114.09448
absg30
F950
sg7
F950
sg31
g2
(g19
g4
NtRp5098
(lp5099
F950
aF114.09448
absg34
(lp5100
sg36
I1
sg37
F0
sg38
(lp5101
sg40
F956.82681315192576
sg41
(lp5102
g2
(g43
g4
NtRp5103
(dp5104
g27
g2
(g19
g4
NtRp5105
(lp5106
F950
aF114.09448
absg31
g2
(g19
g4
NtRp5107
(lp5108
F950
aF114.09448
absg14
Nsg34
(lp5109
sg15
g5109
sg18
g2
(g19
g4
NtRp5110
(lp5111
F0
aF0
absg37
F0
sg38
(lp5112
sg25
(lp5113
sg41
g5113
sbasbag2
(g11
g4
NtRp5114
(dp5115
g14
Nsg15
(lp5116
sg17
I00
sg18
g2
(g19
g4
NtRp5117
(lp5118
F0
aF-80
absg22
g23
sg24
F114.09448
sg8
F194.09448
sg25
(lp5119
sg27
g2
(g19
g4
NtRp5120
(lp5121
F925
aF114.09448
absg30
F925
sg7
F925
sg31
g2
(g19
g4
NtRp5122
(lp5123
F925
aF194.09448
absg34
(lp5124
sg36
I1
sg37
F80
sg38
(lp5125
sg40
F945.14425733137182
sg41
(lp5126
g2
(g43
g4
NtRp5127
(dp5128
g27
g2
(g19
g4
NtRp5129
(lp5130
F925
aF114.09448
absg31
g2
(g19
g4
NtRp5131
(lp5132
F925
aF194.09448
absg14
Nsg34
(lp5133
sg15
g5133
sg18
g2
(g19
g4
NtRp5134
(lp5135
F0
aF-80
absg37
F80
sg38
(lp5136
sg25
(lp5137
sg41
g5137
sbasbag2
(g11
g4
NtRp5138
(dp5139
g14
Nsg15
(lp5140
sg17
I00
sg18
g2
(g19
g4
NtRp5141
(lp5142
F0
aF0
absg22
g23
sg24
F114.09448
sg8
F114.09448
sg25
(lp5143
sg27
g2
(g19
g4
NtRp5144
(lp5145
F925
aF114.09448
absg30
F925
sg7
F925
sg31
g2
(g19
g4
NtRp5146
(lp5147
F925
aF114.09448
absg34
(lp5148
sg36
I1
sg37
F0
sg38
(lp5149
sg40
F932.00995186020964
sg41
(lp5150
g2
(g43
g4
NtRp5151
(dp5152
g27
g2
(g19
g4
NtRp5153
(lp5154
F925
aF114.09448
absg31
g2
(g19
g4
NtRp5155
(lp5156
F925
aF114.09448
absg14
Nsg34
(lp5157
sg15
g5157
sg18
g2
(g19
g4
NtRp5158
(lp5159
F0
aF0
absg37
F0
sg38
(lp5160
sg25
(lp5161
sg41
g5161
sbasbasg30
F900
sg24
F114.09448
sg103
g104
sg105
I01
sbsS'W'
g2
(g3
g4
NtRp5162
(dp5163
g7
F250
sg8
F294.09447999999998
sg9
(lp5164
g2
(g11
g4
NtRp5165
(dp5166
g14
Nsg15
(lp5167
sg17
I00
sg18
g2
(g19
g4
NtRp5168
(lp5169
F0
aF79.999999999999972
absg22
g23
sg24
F214.09448
sg8
F294.09447999999998
sg25
(lp5170
sg27
g2
(g19
g4
NtRp5171
(lp5172
F200
aF294.09447999999998
absg30
F200
sg7
F200
sg31
g2
(g19
g4
NtRp5173
(lp5174
F200
aF214.09448
absg34
(lp5175
sg36
I1
sg37
F79.999999999999972
sg38
(lp5176
sg40
F355.65652414439182
sg41
(lp5177
g2
(g43
g4
NtRp5178
(dp5179
g27
g2
(g19
g4
NtRp5180
(lp5181
F200
aF294.09447999999998
absg31
g2
(g19
g4
NtRp5182
(lp5183
F200
aF214.09448
absg14
Nsg34
(lp5184
sg15
g5184
sg18
g2
(g19
g4
NtRp5185
(lp5186
F0
aF79.999999999999972
absg37
F79.999999999999972
sg38
(lp5187
sg25
(lp5188
sg41
g5188
sbasbag2
(g11
g4
NtRp5189
(dp5190
g14
Nsg15
(lp5191
sg17
I00
sg18
g2
(g19
g4
NtRp5192
(lp5193
F25
aF-35
absg22
g23
sg24
F259.09447999999998
sg8
F294.09447999999998
sg25
(lp5194
sg27
g2
(g19
g4
NtRp5195
(lp5196
F225
aF259.09447999999998
absg30
F200
sg7
F225
sg31
g2
(g19
g4
NtRp5197
(lp5198
F200
aF294.09447999999998
absg34
(lp5199
sg36
I1
sg37
F43.011626335213137
sg38
(lp5200
sg40
F355.65652414439182
sg41
(lp5201
g2
(g43
g4
NtRp5202
(dp5203
g27
g2
(g19
g4
NtRp5204
(lp5205
F225
aF259.09447999999998
absg31
g2
(g19
g4
NtRp5206
(lp5207
F200
aF294.09447999999998
absg14
Nsg34
(lp5208
sg15
g5208
sg18
g2
(g19
g4
NtRp5209
(lp5210
F25
aF-35
absg37
F43.011626335213137
sg38
(lp5211
sg25
(lp5212
sg41
g5212
sbasbag2
(g11
g4
NtRp5213
(dp5214
g14
Nsg15
(lp5215
sg17
I00
sg18
g2
(g19
g4
NtRp5216
(lp5217
F25
aF35
absg22
g23
sg24
F259.09447999999998
sg8
F294.09447999999998
sg25
(lp5218
sg27
g2
(g19
g4
NtRp5219
(lp5220
F250
aF294.09447999999998
absg30
F225
sg7
F250
sg31
g2
(g19
g4
NtRp5221
(lp5222
F225
aF259.09447999999998
absg34
(lp5223
sg36
I1
sg37
F43.011626335213137
sg38
(lp5224
sg40
F385.99425276352287
sg41
(lp5225
g2
(g43
g4
NtRp5226
(dp5227
g27
g2
(g19
g4
NtRp5228
(lp5229
F250
aF294.09447999999998
absg31
g2
(g19
g4
NtRp5230
(lp5231
F225
aF259.09447999999998
absg14
Nsg34
(lp5232
sg15
g5232
sg18
g2
(g19
g4
NtRp5233
(lp5234
F25
aF35
absg37
F43.011626335213137
sg38
(lp5235
sg25
(lp5236
sg41
g5236
sbasbag2
(g11
g4
NtRp5237
(dp5238
g14
Nsg15
(lp5239
sg17
I00
sg18
g2
(g19
g4
NtRp5240
(lp5241
F0
aF-80
absg22
g23
sg24
F214.09447999999998
sg8
F294.09447999999998
sg25
(lp5242
sg27
g2
(g19
g4
NtRp5243
(lp5244
F250
aF214.09447999999998
absg30
F250
sg7
F250
sg31
g2
(g19
g4
NtRp5245
(lp5246
F250
aF294.09447999999998
absg34
(lp5247
sg36
I1
sg37
F80
sg38
(lp5248
sg40
F385.99425276352287
sg41
(lp5249
g2
(g43
g4
NtRp5250
(dp5251
g27
g2
(g19
g4
NtRp5252
(lp5253
F250
aF214.09447999999998
absg31
g2
(g19
g4
NtRp5254
(lp5255
F250
aF294.09447999999998
absg14
Nsg34
(lp5256
sg15
g5256
sg18
g2
(g19
g4
NtRp5257
(lp5258
F0
aF-80
absg37
F80
sg38
(lp5259
sg25
(lp5260
sg41
g5260
sbasbag2
(g11
g4
NtRp5261
(dp5262
g14
Nsg15
(lp5263
sg17
I00
sg18
g2
(g19
g4
NtRp5264
(lp5265
F0
aF0
absg22
g23
sg24
F214.09447999999998
sg8
F214.09447999999998
sg25
(lp5266
sg27
g2
(g19
g4
NtRp5267
(lp5268
F250
aF214.09447999999998
absg30
F250
sg7
F250
sg31
g2
(g19
g4
NtRp5269
(lp5270
F250
aF214.09447999999998
absg34
(lp5271
sg36
I1
sg37
F0
sg38
(lp5272
sg40
F329.14502330503251
sg41
(lp5273
g2
(g43
g4
NtRp5274
(dp5275
g27
g2
(g19
g4
NtRp5276
(lp5277
F250
aF214.09447999999998
absg31
g2
(g19
g4
NtRp5278
(lp5279
F250
aF214.09447999999998
absg14
Nsg34
(lp5280
sg15
g5280
sg18
g2
(g19
g4
NtRp5281
(lp5282
F0
aF0
absg37
F0
sg38
(lp5283
sg25
(lp5284
sg41
g5284
sbasbasg30
F200
sg24
F214.09447999999998
sg103
g104
sg105
I01
sbsS'V'
g2
(g3
g4
NtRp5285
(dp5286
g7
F150
sg8
F294.09447999999998
sg9
(lp5287
g2
(g11
g4
NtRp5288
(dp5289
g14
Nsg15
(lp5290
sg17
I00
sg18
g2
(g19
g4
NtRp5291
(lp5292
F25
aF79.999999999999972
absg22
g23
sg24
F214.09448
sg8
F294.09447999999998
sg25
(lp5293
sg27
g2
(g19
g4
NtRp5294
(lp5295
F125
aF294.09447999999998
absg30
F100
sg7
F125
sg31
g2
(g19
g4
NtRp5296
(lp5297
F100
aF214.09448
absg34
(lp5298
sg36
I1
sg37
F83.81527307120102
sg38
(lp5299
sg40
F319.55682306355214
sg41
(lp5300
g2
(g43
g4
NtRp5301
(dp5302
g27
g2
(g19
g4
NtRp5303
(lp5304
F125
aF294.09447999999998
absg31
g2
(g19
g4
NtRp5305
(lp5306
F100
aF214.09448
absg14
Nsg34
(lp5307
sg15
g5307
sg18
g2
(g19
g4
NtRp5308
(lp5309
F25
aF79.999999999999972
absg37
F83.81527307120102
sg38
(lp5310
sg25
(lp5311
sg41
g5311
sbasbag2
(g11
g4
NtRp5312
(dp5313
g14
Nsg15
(lp5314
sg17
I00
sg18
g2
(g19
g4
NtRp5315
(lp5316
F25
aF-80
absg22
g23
sg24
F214.09447999999998
sg8
F294.09447999999998
sg25
(lp5317
sg27
g2
(g19
g4
NtRp5318
(lp5319
F150
aF214.09447999999998
absg30
F125
sg7
F150
sg31
g2
(g19
g4
NtRp5320
(lp5321
F125
aF294.09447999999998
absg34
(lp5322
sg36
I1
sg37
F83.815273071201048
sg38
(lp5323
sg40
F319.55682306355214
sg41
(lp5324
g2
(g43
g4
NtRp5325
(dp5326
g27
g2
(g19
g4
NtRp5327
(lp5328
F150
aF214.09447999999998
absg31
g2
(g19
g4
NtRp5329
(lp5330
F125
aF294.09447999999998
absg14
Nsg34
(lp5331
sg15
g5331
sg18
g2
(g19
g4
NtRp5332
(lp5333
F25
aF-80
absg37
F83.815273071201048
sg38
(lp5334
sg25
(lp5335
sg41
g5335
sbasbag2
(g11
g4
NtRp5336
(dp5337
g14
Nsg15
(lp5338
sg17
I00
sg18
g2
(g19
g4
NtRp5339
(lp5340
F0
aF0
absg22
g23
sg24
F214.09447999999998
sg8
F214.09447999999998
sg25
(lp5341
sg27
g2
(g19
g4
NtRp5342
(lp5343
F150
aF214.09447999999998
absg30
F150
sg7
F150
sg31
g2
(g19
g4
NtRp5344
(lp5345
F150
aF214.09447999999998
absg34
(lp5346
sg36
I1
sg37
F0
sg38
(lp5347
sg40
F261.41240668046038
sg41
(lp5348
g2
(g43
g4
NtRp5349
(dp5350
g27
g2
(g19
g4
NtRp5351
(lp5352
F150
aF214.09447999999998
absg31
g2
(g19
g4
NtRp5353
(lp5354
F150
aF214.09447999999998
absg14
Nsg34
(lp5355
sg15
g5355
sg18
g2
(g19
g4
NtRp5356
(lp5357
F0
aF0
absg37
F0
sg38
(lp5358
sg25
(lp5359
sg41
g5359
sbasbasg30
F100
sg24
F214.09447999999998
sg103
g104
sg105
I01
sbsS'Y'
g2
(g3
g4
NtRp5360
(dp5361
g7
F450
sg8
F294.09447999999998
sg9
(lp5362
g2
(g11
g4
NtRp5363
(dp5364
g14
Nsg15
(lp5365
sg17
I00
sg18
g2
(g19
g4
NtRp5366
(lp5367
F25
aF35
absg22
g23
sg24
F214.09448
sg8
F249.09448
sg25
(lp5368
sg27
g2
(g19
g4
NtRp5369
(lp5370
F425
aF249.09448
absg30
F400
sg7
F425
sg31
g2
(g19
g4
NtRp5371
(lp5372
F400
aF214.09448
absg34
(lp5373
sg36
I1
sg37
F43.011626335213137
sg38
(lp5374
sg40
F492.61857452441888
sg41
(lp5375
g2
(g43
g4
NtRp5376
(dp5377
g27
g2
(g19
g4
NtRp5378
(lp5379
F425
aF249.09448
absg31
g2
(g19
g4
NtRp5380
(lp5381
F400
aF214.09448
absg14
Nsg34
(lp5382
sg15
g5382
sg18
g2
(g19
g4
NtRp5383
(lp5384
F25
aF35
absg37
F43.011626335213137
sg38
(lp5385
sg25
(lp5386
sg41
g5386
sbasbag2
(g11
g4
NtRp5387
(dp5388
g14
Nsg15
(lp5389
sg17
I00
sg18
g2
(g19
g4
NtRp5390
(lp5391
F25
aF-35
absg22
g23
sg24
F214.09448
sg8
F249.09448
sg25
(lp5392
sg27
g2
(g19
g4
NtRp5393
(lp5394
F450
aF214.09448
absg30
F425
sg7
F450
sg31
g2
(g19
g4
NtRp5395
(lp5396
F425
aF249.09448
absg34
(lp5397
sg36
I1
sg37
F43.011626335213137
sg38
(lp5398
sg40
F498.33366970983445
sg41
(lp5399
g2
(g43
g4
NtRp5400
(dp5401
g27
g2
(g19
g4
NtRp5402
(lp5403
F450
aF214.09448
absg31
g2
(g19
g4
NtRp5404
(lp5405
F425
aF249.09448
absg14
Nsg34
(lp5406
sg15
g5406
sg18
g2
(g19
g4
NtRp5407
(lp5408
F25
aF-35
absg37
F43.011626335213137
sg38
(lp5409
sg25
(lp5410
sg41
g5410
sbasbag2
(g11
g4
NtRp5411
(dp5412
g14
Nsg15
(lp5413
sg17
I00
sg18
g2
(g19
g4
NtRp5414
(lp5415
F0
aF0
absg22
g23
sg24
F214.09448
sg8
F214.09448
sg25
(lp5416
sg27
g2
(g19
g4
NtRp5417
(lp5418
F450
aF214.09448
absg30
F450
sg7
F450
sg31
g2
(g19
g4
NtRp5419
(lp5420
F450
aF214.09448
absg34
(lp5421
sg36
I1
sg37
F0
sg38
(lp5422
sg40
F498.33366970983445
sg41
(lp5423
g2
(g43
g4
NtRp5424
(dp5425
g27
g2
(g19
g4
NtRp5426
(lp5427
F450
aF214.09448
absg31
g2
(g19
g4
NtRp5428
(lp5429
F450
aF214.09448
absg14
Nsg34
(lp5430
sg15
g5430
sg18
g2
(g19
g4
NtRp5431
(lp5432
F0
aF0
absg37
F0
sg38
(lp5433
sg25
(lp5434
sg41
g5434
sbasbag2
(g11
g4
NtRp5435
(dp5436
g14
Nsg15
(lp5437
sg17
I00
sg18
g2
(g19
g4
NtRp5438
(lp5439
F0
aF44.999999999999972
absg22
g23
sg24
F249.09448
sg8
F294.09447999999998
sg25
(lp5440
sg27
g2
(g19
g4
NtRp5441
(lp5442
F425
aF294.09447999999998
absg30
F425
sg7
F425
sg31
g2
(g19
g4
NtRp5443
(lp5444
F425
aF249.09448
absg34
(lp5445
sg36
I1
sg37
F44.999999999999972
sg38
(lp5446
sg40
F516.83320633108553
sg41
(lp5447
g2
(g43
g4
NtRp5448
(dp5449
g27
g2
(g19
g4
NtRp5450
(lp5451
F425
aF294.09447999999998
absg31
g2
(g19
g4
NtRp5452
(lp5453
F425
aF249.09448
absg14
Nsg34
(lp5454
sg15
g5454
sg18
g2
(g19
g4
NtRp5455
(lp5456
F0
aF44.999999999999972
absg37
F44.999999999999972
sg38
(lp5457
sg25
(lp5458
sg41
g5458
sbasbasg30
F400
sg24
F214.09448
sg103
g104
sg105
I01
sbsS'X'
g2
(g3
g4
NtRp5459
(dp5460
g7
F350
sg8
F294.09447999999998
sg9
(lp5461
g2
(g11
g4
NtRp5462
(dp5463
g14
Nsg15
(lp5464
sg17
I00
sg18
g2
(g19
g4
NtRp5465
(lp5466
F50
aF-80
absg22
g23
sg24
F214.09447999999998
sg8
F294.09447999999998
sg25
(lp5467
sg27
g2
(g19
g4
NtRp5468
(lp5469
F350
aF214.09447999999998
absg30
F300
sg7
F350
sg31
g2
(g19
g4
NtRp5470
(lp5471
F300
aF294.09447999999998
absg34
(lp5472
sg36
I1
sg37
F94.339811320566042
sg38
(lp5473
sg40
F420.10898962825155
sg41
(lp5474
g2
(g43
g4
NtRp5475
(dp5476
g27
g2
(g19
g4
NtRp5477
(lp5478
F350
aF214.09447999999998
absg31
g2
(g19
g4
NtRp5479
(lp5480
F300
aF294.09447999999998
absg14
Nsg34
(lp5481
sg15
g5481
sg18
g2
(g19
g4
NtRp5482
(lp5483
F50
aF-80
absg37
F94.339811320566042
sg38
(lp5484
sg25
(lp5485
sg41
g5485
sbasbag2
(g11
g4
NtRp5486
(dp5487
g14
Nsg15
(lp5488
sg17
I00
sg18
g2
(g19
g4
NtRp5489
(lp5490
F0
aF0
absg22
g23
sg24
F214.09447999999998
sg8
F214.09447999999998
sg25
(lp5491
sg27
g2
(g19
g4
NtRp5492
(lp5493
F350
aF214.09447999999998
absg30
F350
sg7
F350
sg31
g2
(g19
g4
NtRp5494
(lp5495
F350
aF214.09447999999998
absg34
(lp5496
sg36
I1
sg37
F0
sg38
(lp5497
sg40
F410.28824790197245
sg41
(lp5498
g2
(g43
g4
NtRp5499
(dp5500
g27
g2
(g19
g4
NtRp5501
(lp5502
F350
aF214.09447999999998
absg31
g2
(g19
g4
NtRp5503
(lp5504
F350
aF214.09447999999998
absg14
Nsg34
(lp5505
sg15
g5505
sg18
g2
(g19
g4
NtRp5506
(lp5507
F0
aF0
absg37
F0
sg38
(lp5508
sg25
(lp5509
sg41
g5509
sbasbag2
(g11
g4
NtRp5510
(dp5511
g14
Nsg15
(lp5512
sg17
I00
sg18
g2
(g19
g4
NtRp5513
(lp5514
F50
aF79.999999999999972
absg22
g23
sg24
F214.09448
sg8
F294.09447999999998
sg25
(lp5515
sg27
g2
(g19
g4
NtRp5516
(lp5517
F350
aF294.09447999999998
absg30
F300
sg7
F350
sg31
g2
(g19
g4
NtRp5518
(lp5519
F300
aF214.09448
absg34
(lp5520
sg36
I1
sg37
F94.339811320566014
sg38
(lp5521
sg40
F457.15595059724467
sg41
(lp5522
g2
(g43
g4
NtRp5523
(dp5524
g27
g2
(g19
g4
NtRp5525
(lp5526
F350
aF294.09447999999998
absg31
g2
(g19
g4
NtRp5527
(lp5528
F300
aF214.09448
absg14
Nsg34
(lp5529
sg15
g5529
sg18
g2
(g19
g4
NtRp5530
(lp5531
F50
aF79.999999999999972
absg37
F94.339811320566014
sg38
(lp5532
sg25
(lp5533
sg41
g5533
sbasbag2
(g11
g4
NtRp5534
(dp5535
g14
Nsg15
(lp5536
sg17
I00
sg18
g2
(g19
g4
NtRp5537
(lp5538
F0
aF0
absg22
g23
sg24
F294.09447999999998
sg8
F294.09447999999998
sg25
(lp5539
sg27
g2
(g19
g4
NtRp5540
(lp5541
F350
aF294.09447999999998
absg30
F350
sg7
F350
sg31
g2
(g19
g4
NtRp5542
(lp5543
F350
aF294.09447999999998
absg34
(lp5544
sg36
I1
sg37
F0
sg38
(lp5545
sg40
F457.15595059724467
sg41
(lp5546
g2
(g43
g4
NtRp5547
(dp5548
g27
g2
(g19
g4
NtRp5549
(lp5550
F350
aF294.09447999999998
absg31
g2
(g19
g4
NtRp5551
(lp5552
F350
aF294.09447999999998
absg14
Nsg34
(lp5553
sg15
g5553
sg18
g2
(g19
g4
NtRp5554
(lp5555
F0
aF0
absg37
F0
sg38
(lp5556
sg25
(lp5557
sg41
g5557
sbasbasg30
F300
sg24
F214.09447999999998
sg103
g104
sg105
I01
sbsS'Z'
g2
(g3
g4
NtRp5558
(dp5559
g7
F550
sg8
F294.09447999999998
sg9
(lp5560
g2
(g11
g4
NtRp5561
(dp5562
g14
Nsg15
(lp5563
sg17
I00
sg18
g2
(g19
g4
NtRp5564
(lp5565
F50
aF0
absg22
g23
sg24
F214.09448
sg8
F214.09448
sg25
(lp5566
sg27
g2
(g19
g4
NtRp5567
(lp5568
F550
aF214.09448
absg30
F500
sg7
F550
sg31
g2
(g19
g4
NtRp5569
(lp5570
F500
aF214.09448
absg34
(lp5571
sg36
I1
sg37
F50
sg38
(lp5572
sg40
F590.20034426156553
sg41
(lp5573
g2
(g43
g4
NtRp5574
(dp5575
g27
g2
(g19
g4
NtRp5576
(lp5577
F550
aF214.09448
absg31
g2
(g19
g4
NtRp5578
(lp5579
F500
aF214.09448
absg14
Nsg34
(lp5580
sg15
g5580
sg18
g2
(g19
g4
NtRp5581
(lp5582
F50
aF0
absg37
F50
sg38
(lp5583
sg25
(lp5584
sg41
g5584
sbasbag2
(g11
g4
NtRp5585
(dp5586
g14
Nsg15
(lp5587
sg17
I00
sg18
g2
(g19
g4
NtRp5588
(lp5589
F-50
aF79.999999999999972
absg22
g23
sg24
F214.09448
sg8
F294.09447999999998
sg25
(lp5590
sg27
g2
(g19
g4
NtRp5591
(lp5592
F500
aF294.09447999999998
absg30
F500
sg7
F550
sg31
g2
(g19
g4
NtRp5593
(lp5594
F550
aF214.09448
absg34
(lp5595
sg36
I1
sg37
F94.339811320566014
sg38
(lp5596
sg40
F590.20034426156553
sg41
(lp5597
g2
(g43
g4
NtRp5598
(dp5599
g27
g2
(g19
g4
NtRp5600
(lp5601
F500
aF294.09447999999998
absg31
g2
(g19
g4
NtRp5602
(lp5603
F550
aF214.09448
absg14
Nsg34
(lp5604
sg15
g5604
sg18
g2
(g19
g4
NtRp5605
(lp5606
F-50
aF79.999999999999972
absg37
F94.339811320566014
sg38
(lp5607
sg25
(lp5608
sg41
g5608
sbasbag2
(g11
g4
NtRp5609
(dp5610
g14
Nsg15
(lp5611
sg17
I00
sg18
g2
(g19
g4
NtRp5612
(lp5613
F50
aF0
absg22
g23
sg24
F294.09447999999998
sg8
F294.09447999999998
sg25
(lp5614
sg27
g2
(g19
g4
NtRp5615
(lp5616
F550
aF294.09447999999998
absg30
F500
sg7
F550
sg31
g2
(g19
g4
NtRp5617
(lp5618
F500
aF294.09447999999998
absg34
(lp5619
sg36
I1
sg37
F50
sg38
(lp5620
sg40
F623.69188159416535
sg41
(lp5621
g2
(g43
g4
NtRp5622
(dp5623
g27
g2
(g19
g4
NtRp5624
(lp5625
F550
aF294.09447999999998
absg31
g2
(g19
g4
NtRp5626
(lp5627
F500
aF294.09447999999998
absg14
Nsg34
(lp5628
sg15
g5628
sg18
g2
(g19
g4
NtRp5629
(lp5630
F50
aF0
absg37
F50
sg38
(lp5631
sg25
(lp5632
sg41
g5632
sbasbag2
(g11
g4
NtRp5633
(dp5634
g14
Nsg15
(lp5635
sg17
I00
sg18
g2
(g19
g4
NtRp5636
(lp5637
F0
aF0
absg22
g23
sg24
F294.09447999999998
sg8
F294.09447999999998
sg25
(lp5638
sg27
g2
(g19
g4
NtRp5639
(lp5640
F550
aF294.09447999999998
absg30
F550
sg7
F550
sg31
g2
(g19
g4
NtRp5641
(lp5642
F550
aF294.09447999999998
absg34
(lp5643
sg36
I1
sg37
F0
sg38
(lp5644
sg40
F623.69188159416535
sg41
(lp5645
g2
(g43
g4
NtRp5646
(dp5647
g27
g2
(g19
g4
NtRp5648
(lp5649
F550
aF294.09447999999998
absg31
g2
(g19
g4
NtRp5650
(lp5651
F550
aF294.09447999999998
absg14
Nsg34
(lp5652
sg15
g5652
sg18
g2
(g19
g4
NtRp5653
(lp5654
F0
aF0
absg37
F0
sg38
(lp5655
sg25
(lp5656
sg41
g5656
sbasbasg30
F500
sg24
F214.09448
sg103
g104
sg105
I01
sbs.